
bin\Debug\RFID_module_AGV.elf:     file format elf32-avr

Sections:
Idx Name          Size      VMA       LMA       File off  Algn
  0 .data         0000000a  00800200  000008e0  00000974  2**0
                  CONTENTS, ALLOC, LOAD, DATA
  1 .text         000008e0  00000000  00000000  00000094  2**1
                  CONTENTS, ALLOC, LOAD, READONLY, CODE
  2 .fuse         00000003  00820000  00820000  0000097e  2**0
                  CONTENTS, ALLOC, LOAD, DATA
  3 .comment      00000012  00000000  00000000  00000981  2**0
                  CONTENTS, READONLY
  4 .note.gnu.avr.deviceinfo 00000040  00000000  00000000  00000994  2**2
                  CONTENTS, READONLY, OCTETS
  5 .debug_aranges 00000118  00000000  00000000  000009d8  2**3
                  CONTENTS, READONLY, DEBUGGING, OCTETS
  6 .debug_info   0000211f  00000000  00000000  00000af0  2**0
                  CONTENTS, READONLY, DEBUGGING, OCTETS
  7 .debug_abbrev 000012ac  00000000  00000000  00002c0f  2**0
                  CONTENTS, READONLY, DEBUGGING, OCTETS
  8 .debug_line   00001a2e  00000000  00000000  00003ebb  2**0
                  CONTENTS, READONLY, DEBUGGING, OCTETS
  9 .debug_frame  000002c0  00000000  00000000  000058ec  2**2
                  CONTENTS, READONLY, DEBUGGING, OCTETS
 10 .debug_str    00000761  00000000  00000000  00005bac  2**0
                  CONTENTS, READONLY, DEBUGGING, OCTETS
 11 .debug_line_str 000001e7  00000000  00000000  0000630d  2**0
                  CONTENTS, READONLY, DEBUGGING, OCTETS
 12 .debug_loclists 0000074e  00000000  00000000  000064f4  2**0
                  CONTENTS, READONLY, DEBUGGING, OCTETS
 13 .debug_rnglists 00000035  00000000  00000000  00006c42  2**0
                  CONTENTS, READONLY, DEBUGGING, OCTETS

Disassembly of section .text:

00000000 <__vectors>:
   0:	0c 94 72 00 	jmp	0xe4	; 0xe4 <__ctors_end>
   4:	0c 94 8b 00 	jmp	0x116	; 0x116 <__bad_interrupt>
   8:	0c 94 8b 00 	jmp	0x116	; 0x116 <__bad_interrupt>
   c:	0c 94 8b 00 	jmp	0x116	; 0x116 <__bad_interrupt>
  10:	0c 94 8b 00 	jmp	0x116	; 0x116 <__bad_interrupt>
  14:	0c 94 8b 00 	jmp	0x116	; 0x116 <__bad_interrupt>
  18:	0c 94 8b 00 	jmp	0x116	; 0x116 <__bad_interrupt>
  1c:	0c 94 8b 00 	jmp	0x116	; 0x116 <__bad_interrupt>
  20:	0c 94 8b 00 	jmp	0x116	; 0x116 <__bad_interrupt>
  24:	0c 94 8b 00 	jmp	0x116	; 0x116 <__bad_interrupt>
  28:	0c 94 8b 00 	jmp	0x116	; 0x116 <__bad_interrupt>
  2c:	0c 94 8b 00 	jmp	0x116	; 0x116 <__bad_interrupt>
  30:	0c 94 8b 00 	jmp	0x116	; 0x116 <__bad_interrupt>
  34:	0c 94 8b 00 	jmp	0x116	; 0x116 <__bad_interrupt>
  38:	0c 94 8b 00 	jmp	0x116	; 0x116 <__bad_interrupt>
  3c:	0c 94 8b 00 	jmp	0x116	; 0x116 <__bad_interrupt>
  40:	0c 94 8b 00 	jmp	0x116	; 0x116 <__bad_interrupt>
  44:	0c 94 8b 00 	jmp	0x116	; 0x116 <__bad_interrupt>
  48:	0c 94 8b 00 	jmp	0x116	; 0x116 <__bad_interrupt>
  4c:	0c 94 8b 00 	jmp	0x116	; 0x116 <__bad_interrupt>
  50:	0c 94 8b 00 	jmp	0x116	; 0x116 <__bad_interrupt>
  54:	0c 94 8b 00 	jmp	0x116	; 0x116 <__bad_interrupt>
  58:	0c 94 8b 00 	jmp	0x116	; 0x116 <__bad_interrupt>
  5c:	0c 94 8b 00 	jmp	0x116	; 0x116 <__bad_interrupt>
  60:	0c 94 8b 00 	jmp	0x116	; 0x116 <__bad_interrupt>
  64:	0c 94 8b 00 	jmp	0x116	; 0x116 <__bad_interrupt>
  68:	0c 94 8b 00 	jmp	0x116	; 0x116 <__bad_interrupt>
  6c:	0c 94 8b 00 	jmp	0x116	; 0x116 <__bad_interrupt>
  70:	0c 94 8b 00 	jmp	0x116	; 0x116 <__bad_interrupt>
  74:	0c 94 8b 00 	jmp	0x116	; 0x116 <__bad_interrupt>
  78:	0c 94 8b 00 	jmp	0x116	; 0x116 <__bad_interrupt>
  7c:	0c 94 8b 00 	jmp	0x116	; 0x116 <__bad_interrupt>
  80:	0c 94 8b 00 	jmp	0x116	; 0x116 <__bad_interrupt>
  84:	0c 94 8b 00 	jmp	0x116	; 0x116 <__bad_interrupt>
  88:	0c 94 8b 00 	jmp	0x116	; 0x116 <__bad_interrupt>
  8c:	0c 94 8b 00 	jmp	0x116	; 0x116 <__bad_interrupt>
  90:	0c 94 8b 00 	jmp	0x116	; 0x116 <__bad_interrupt>
  94:	0c 94 8b 00 	jmp	0x116	; 0x116 <__bad_interrupt>
  98:	0c 94 8b 00 	jmp	0x116	; 0x116 <__bad_interrupt>
  9c:	0c 94 8b 00 	jmp	0x116	; 0x116 <__bad_interrupt>
  a0:	0c 94 8b 00 	jmp	0x116	; 0x116 <__bad_interrupt>
  a4:	0c 94 8b 00 	jmp	0x116	; 0x116 <__bad_interrupt>
  a8:	0c 94 8b 00 	jmp	0x116	; 0x116 <__bad_interrupt>
  ac:	0c 94 8b 00 	jmp	0x116	; 0x116 <__bad_interrupt>
  b0:	0c 94 8b 00 	jmp	0x116	; 0x116 <__bad_interrupt>
  b4:	0c 94 8b 00 	jmp	0x116	; 0x116 <__bad_interrupt>
  b8:	0c 94 8b 00 	jmp	0x116	; 0x116 <__bad_interrupt>
  bc:	0c 94 8b 00 	jmp	0x116	; 0x116 <__bad_interrupt>
  c0:	0c 94 8b 00 	jmp	0x116	; 0x116 <__bad_interrupt>
  c4:	0c 94 8b 00 	jmp	0x116	; 0x116 <__bad_interrupt>
  c8:	0c 94 8b 00 	jmp	0x116	; 0x116 <__bad_interrupt>
  cc:	0c 94 8b 00 	jmp	0x116	; 0x116 <__bad_interrupt>
  d0:	0c 94 8b 00 	jmp	0x116	; 0x116 <__bad_interrupt>
  d4:	0c 94 8b 00 	jmp	0x116	; 0x116 <__bad_interrupt>
  d8:	0c 94 8b 00 	jmp	0x116	; 0x116 <__bad_interrupt>
  dc:	0c 94 8b 00 	jmp	0x116	; 0x116 <__bad_interrupt>
  e0:	0c 94 8b 00 	jmp	0x116	; 0x116 <__bad_interrupt>

000000e4 <__ctors_end>:
  e4:	11 24       	eor	r1, r1
  e6:	1f be       	out	0x3f, r1	; 63
  e8:	cf ef       	ldi	r28, 0xFF	; 255
  ea:	d1 e2       	ldi	r29, 0x21	; 33
  ec:	de bf       	out	0x3e, r29	; 62
  ee:	cd bf       	out	0x3d, r28	; 61
  f0:	00 e0       	ldi	r16, 0x00	; 0
  f2:	0c bf       	out	0x3c, r16	; 60

000000f4 <__do_copy_data>:
  f4:	12 e0       	ldi	r17, 0x02	; 2

000000f6 <.Loc.1>:
  f6:	a0 e0       	ldi	r26, 0x00	; 0

000000f8 <.Loc.2>:
  f8:	b2 e0       	ldi	r27, 0x02	; 2

000000fa <.Loc.3>:
  fa:	e0 ee       	ldi	r30, 0xE0	; 224

000000fc <.Loc.4>:
  fc:	f8 e0       	ldi	r31, 0x08	; 8

000000fe <.Loc.5>:
  fe:	00 e0       	ldi	r16, 0x00	; 0

00000100 <.Loc.6>:
 100:	0b bf       	out	0x3b, r16	; 59

00000102 <.Loc.7>:
 102:	02 c0       	rjmp	.+4      	; 0x108 <.L__do_copy_data_start>

00000104 <.L__do_copy_data_loop>:
 104:	07 90       	elpm	r0, Z+

00000106 <.Loc.9>:
 106:	0d 92       	st	X+, r0

00000108 <.L__do_copy_data_start>:
 108:	aa 30       	cpi	r26, 0x0A	; 10

0000010a <.Loc.11>:
 10a:	b1 07       	cpc	r27, r17

0000010c <.Loc.12>:
 10c:	d9 f7       	brne	.-10     	; 0x104 <.L__do_copy_data_loop>

0000010e <L0^A>:
 10e:	0e 94 88 02 	call	0x510	; 0x510 <main>
 112:	0c 94 6e 04 	jmp	0x8dc	; 0x8dc <_exit>

00000116 <__bad_interrupt>:
 116:	0c 94 00 00 	jmp	0	; 0x0 <__vectors>

0000011a <send_byte>:
const uint8_t segmentMap[] = {
    0x3F, 0x06, 0x5B, 0x4F, 0x66, 0x6D, 0x7D, 0x07, 0x7F, 0x6F
};

// Getal of commando naar display sturen
void send_byte(uint8_t data) {
 11a:	28 e0       	ldi	r18, 0x08	; 8

0000011c <.Loc.5>:
    for (uint8_t i = 0; i < 8; i++) { // Geef bitjes een voor een door
        CLK_LOW();
 11c:	eb e0       	ldi	r30, 0x0B	; 11
 11e:	f1 e0       	ldi	r31, 0x01	; 1
 120:	16 c0       	rjmp	.+44     	; 0x14e <.L4>

00000122 <.L2>:
        if (data & 0x01) {
            DIO_HIGH();
        }
        else {
            DIO_LOW();
 122:	90 81       	ld	r25, Z
 124:	9f 77       	andi	r25, 0x7F	; 127
 126:	90 83       	st	Z, r25

00000128 <.L3>:
	#else
		//round up by default
		__ticks_dc = (uint32_t)(ceil(fabs(__tmp)));
	#endif

	__builtin_avr_delay_cycles(__ticks_dc);
 128:	a7 ec       	ldi	r26, 0xC7	; 199
 12a:	b0 e0       	ldi	r27, 0x00	; 0

0000012c <.L1^B1>:
 12c:	11 97       	sbiw	r26, 0x01	; 1
 12e:	f1 f7       	brne	.-4      	; 0x12c <.L1^B1>
 130:	00 c0       	rjmp	.+0      	; 0x132 <L0^A>

00000132 <L0^A>:
	...

00000134 <.LBE20>:
        }
        _delay_us(50);
        CLK_HIGH();
 134:	90 81       	ld	r25, Z
 136:	90 64       	ori	r25, 0x40	; 64
 138:	90 83       	st	Z, r25

0000013a <.LBB22>:
 13a:	a7 ec       	ldi	r26, 0xC7	; 199
 13c:	b0 e0       	ldi	r27, 0x00	; 0

0000013e <.L1^B2>:
 13e:	11 97       	sbiw	r26, 0x01	; 1
 140:	f1 f7       	brne	.-4      	; 0x13e <.L1^B2>
 142:	00 c0       	rjmp	.+0      	; 0x144 <L0^A>

00000144 <L0^A>:
	...

00000146 <.LBE22>:
        _delay_us(50);
        data >>= 1;
 146:	86 95       	lsr	r24

00000148 <.Loc.28>:
    for (uint8_t i = 0; i < 8; i++) { // Geef bitjes een voor een door
 148:	21 50       	subi	r18, 0x01	; 1

0000014a <.Loc.30>:
 14a:	22 23       	and	r18, r18
 14c:	49 f0       	breq	.+18     	; 0x160 <.L6>

0000014e <.L4>:
        CLK_LOW();
 14e:	90 81       	ld	r25, Z
 150:	9f 7b       	andi	r25, 0xBF	; 191
 152:	90 83       	st	Z, r25

00000154 <.Loc.32>:
        if (data & 0x01) {
 154:	80 ff       	sbrs	r24, 0
 156:	e5 cf       	rjmp	.-54     	; 0x122 <.L2>

00000158 <.Loc.34>:
            DIO_HIGH();
 158:	90 81       	ld	r25, Z
 15a:	90 68       	ori	r25, 0x80	; 128
 15c:	90 83       	st	Z, r25
 15e:	e4 cf       	rjmp	.-56     	; 0x128 <.L3>

00000160 <.L6>:
    }
    // Wachten op acknowledge
    CLK_LOW();
 160:	eb e0       	ldi	r30, 0x0B	; 11
 162:	f1 e0       	ldi	r31, 0x01	; 1
 164:	80 81       	ld	r24, Z

00000166 <.Loc.37>:
 166:	8f 7b       	andi	r24, 0xBF	; 191
 168:	80 83       	st	Z, r24

0000016a <.Loc.38>:
    DIO_INPUT();
 16a:	aa e0       	ldi	r26, 0x0A	; 10
 16c:	b1 e0       	ldi	r27, 0x01	; 1
 16e:	8c 91       	ld	r24, X
 170:	8f 77       	andi	r24, 0x7F	; 127
 172:	8c 93       	st	X, r24

00000174 <.LBB25>:
 174:	87 ec       	ldi	r24, 0xC7	; 199
 176:	90 e0       	ldi	r25, 0x00	; 0

00000178 <.L1^B3>:
 178:	01 97       	sbiw	r24, 0x01	; 1
 17a:	f1 f7       	brne	.-4      	; 0x178 <.L1^B3>
 17c:	00 c0       	rjmp	.+0      	; 0x17e <L0^A>

0000017e <L0^A>:
	...

00000180 <.LBE25>:
    _delay_us(50);
    CLK_HIGH();
 180:	80 81       	ld	r24, Z
 182:	80 64       	ori	r24, 0x40	; 64
 184:	80 83       	st	Z, r24

00000186 <.LBB27>:
 186:	87 ec       	ldi	r24, 0xC7	; 199
 188:	90 e0       	ldi	r25, 0x00	; 0

0000018a <.L1^B4>:
 18a:	01 97       	sbiw	r24, 0x01	; 1
 18c:	f1 f7       	brne	.-4      	; 0x18a <.L1^B4>
 18e:	00 c0       	rjmp	.+0      	; 0x190 <L0^A>

00000190 <L0^A>:
	...

00000192 <.LBE27>:
    _delay_us(50);
    CLK_LOW();
 192:	80 81       	ld	r24, Z
 194:	8f 7b       	andi	r24, 0xBF	; 191
 196:	80 83       	st	Z, r24

00000198 <.Loc.59>:
    DIO_OUTPUT();
 198:	8c 91       	ld	r24, X
 19a:	80 68       	ori	r24, 0x80	; 128
 19c:	8c 93       	st	X, r24

0000019e <.Loc.60>:
}
 19e:	08 95       	ret

000001a0 <display_verzending_aan>:

// Display klaarmaken om te ontvangen
void display_verzending_aan(void) {
    DIO_OUTPUT();
 1a0:	ea e0       	ldi	r30, 0x0A	; 10
 1a2:	f1 e0       	ldi	r31, 0x01	; 1
 1a4:	80 81       	ld	r24, Z
 1a6:	80 68       	ori	r24, 0x80	; 128
 1a8:	80 83       	st	Z, r24

000001aa <.Loc.63>:
    DIO_HIGH();
 1aa:	eb e0       	ldi	r30, 0x0B	; 11
 1ac:	f1 e0       	ldi	r31, 0x01	; 1
 1ae:	80 81       	ld	r24, Z
 1b0:	80 68       	ori	r24, 0x80	; 128
 1b2:	80 83       	st	Z, r24

000001b4 <.Loc.64>:
    CLK_HIGH();
 1b4:	80 81       	ld	r24, Z
 1b6:	80 64       	ori	r24, 0x40	; 64
 1b8:	80 83       	st	Z, r24

000001ba <.LBB29>:
 1ba:	87 ec       	ldi	r24, 0xC7	; 199
 1bc:	90 e0       	ldi	r25, 0x00	; 0

000001be <.L1^B5>:
 1be:	01 97       	sbiw	r24, 0x01	; 1
 1c0:	f1 f7       	brne	.-4      	; 0x1be <.L1^B5>
 1c2:	00 c0       	rjmp	.+0      	; 0x1c4 <L0^A>

000001c4 <L0^A>:
	...

000001c6 <.LBE29>:
    _delay_us(50);
    DIO_LOW();
 1c6:	80 81       	ld	r24, Z
 1c8:	8f 77       	andi	r24, 0x7F	; 127
 1ca:	80 83       	st	Z, r24

000001cc <.LBB31>:
 1cc:	87 ec       	ldi	r24, 0xC7	; 199
 1ce:	90 e0       	ldi	r25, 0x00	; 0

000001d0 <.L1^B6>:
 1d0:	01 97       	sbiw	r24, 0x01	; 1
 1d2:	f1 f7       	brne	.-4      	; 0x1d0 <.L1^B6>
 1d4:	00 c0       	rjmp	.+0      	; 0x1d6 <L0^A>

000001d6 <L0^A>:
	...

000001d8 <.LBE31>:
    _delay_us(50);
    CLK_LOW();
 1d8:	80 81       	ld	r24, Z
 1da:	8f 7b       	andi	r24, 0xBF	; 191
 1dc:	80 83       	st	Z, r24

000001de <.Loc.85>:
}
 1de:	08 95       	ret

000001e0 <display_verzending_uit>:

// Ontvangen weer uitzetten
void display_verzending_uit(void) {
    CLK_LOW();
 1e0:	eb e0       	ldi	r30, 0x0B	; 11
 1e2:	f1 e0       	ldi	r31, 0x01	; 1
 1e4:	80 81       	ld	r24, Z
 1e6:	8f 7b       	andi	r24, 0xBF	; 191
 1e8:	80 83       	st	Z, r24

000001ea <.Loc.88>:
    DIO_LOW();
 1ea:	80 81       	ld	r24, Z
 1ec:	8f 77       	andi	r24, 0x7F	; 127
 1ee:	80 83       	st	Z, r24

000001f0 <.LBB33>:
 1f0:	87 ec       	ldi	r24, 0xC7	; 199
 1f2:	90 e0       	ldi	r25, 0x00	; 0

000001f4 <.L1^B7>:
 1f4:	01 97       	sbiw	r24, 0x01	; 1
 1f6:	f1 f7       	brne	.-4      	; 0x1f4 <.L1^B7>
 1f8:	00 c0       	rjmp	.+0      	; 0x1fa <L0^A>

000001fa <L0^A>:
	...

000001fc <.LBE33>:
    _delay_us(50);
    CLK_HIGH();
 1fc:	80 81       	ld	r24, Z
 1fe:	80 64       	ori	r24, 0x40	; 64
 200:	80 83       	st	Z, r24

00000202 <.LBB35>:
 202:	87 ec       	ldi	r24, 0xC7	; 199
 204:	90 e0       	ldi	r25, 0x00	; 0

00000206 <.L1^B8>:
 206:	01 97       	sbiw	r24, 0x01	; 1
 208:	f1 f7       	brne	.-4      	; 0x206 <.L1^B8>
 20a:	00 c0       	rjmp	.+0      	; 0x20c <L0^A>

0000020c <L0^A>:
	...

0000020e <.LBE35>:
    _delay_us(50);
    DIO_HIGH();
 20e:	80 81       	ld	r24, Z
 210:	80 68       	ori	r24, 0x80	; 128
 212:	80 83       	st	Z, r24

00000214 <.Loc.109>:
}
 214:	08 95       	ret

00000216 <display>:

// Print cijfers op display. De eerste twee cijfers geven het aantal lege pakketten aan.
// De laatste twee cijfers geven het aantal pakketten met pasje aan.
void display(uint16_t teller_leeg, uint16_t teller_rfid) {
 216:	bf 92       	push	r11
 218:	cf 92       	push	r12
 21a:	df 92       	push	r13
 21c:	ef 92       	push	r14
 21e:	ff 92       	push	r15
 220:	0f 93       	push	r16
 222:	1f 93       	push	r17
 224:	cf 93       	push	r28
 226:	df 93       	push	r29
 228:	08 2f       	mov	r16, r24
 22a:	19 2f       	mov	r17, r25
 22c:	c6 2f       	mov	r28, r22
 22e:	d7 2f       	mov	r29, r23

00000230 <.Loc.112>:
    uint8_t digits[4];
    digits[0] = teller_leeg / 10;
 230:	98 01       	movw	r18, r16
 232:	ad ec       	ldi	r26, 0xCD	; 205
 234:	bc ec       	ldi	r27, 0xCC	; 204
 236:	0e 94 5f 04 	call	0x8be	; 0x8be <__umulhisi3>

0000023a <.Loc.115>:
 23a:	6c 01       	movw	r12, r24
 23c:	d6 94       	lsr	r13
 23e:	c7 94       	ror	r12
 240:	d6 94       	lsr	r13
 242:	c7 94       	ror	r12
 244:	d6 94       	lsr	r13
 246:	c7 94       	ror	r12

00000248 <.Loc.116>:
    digits[1] = teller_leeg % 10;
 248:	c6 01       	movw	r24, r12
 24a:	88 0f       	add	r24, r24
 24c:	99 1f       	adc	r25, r25
 24e:	88 0f       	add	r24, r24
 250:	99 1f       	adc	r25, r25
 252:	8c 0d       	add	r24, r12
 254:	9d 1d       	adc	r25, r13
 256:	88 0f       	add	r24, r24
 258:	99 1f       	adc	r25, r25
 25a:	08 1b       	sub	r16, r24
 25c:	19 0b       	sbc	r17, r25

0000025e <.Loc.118>:
    digits[2] = teller_rfid / 10;
 25e:	9e 01       	movw	r18, r28
 260:	0e 94 5f 04 	call	0x8be	; 0x8be <__umulhisi3>
 264:	7c 01       	movw	r14, r24
 266:	f6 94       	lsr	r15
 268:	e7 94       	ror	r14
 26a:	f6 94       	lsr	r15
 26c:	e7 94       	ror	r14
 26e:	f6 94       	lsr	r15
 270:	e7 94       	ror	r14

00000272 <.Loc.120>:
 272:	be 2c       	mov	r11, r14

00000274 <.Loc.121>:
    digits[3] = teller_rfid % 10;
 274:	c7 01       	movw	r24, r14
 276:	88 0f       	add	r24, r24
 278:	99 1f       	adc	r25, r25
 27a:	88 0f       	add	r24, r24
 27c:	99 1f       	adc	r25, r25
 27e:	8e 0d       	add	r24, r14
 280:	9f 1d       	adc	r25, r15
 282:	88 0f       	add	r24, r24
 284:	99 1f       	adc	r25, r25
 286:	c8 1b       	sub	r28, r24
 288:	d9 0b       	sbc	r29, r25

0000028a <.Loc.123>:

    display_verzending_aan();
 28a:	0e 94 d0 00 	call	0x1a0	; 0x1a0 <display_verzending_aan>

0000028e <.LVL28>:
    send_byte(0x40);
 28e:	80 e4       	ldi	r24, 0x40	; 64
 290:	0e 94 8d 00 	call	0x11a	; 0x11a <send_byte>

00000294 <.LVL29>:
    display_verzending_uit(); // Data command (auto increment)
 294:	0e 94 f0 00 	call	0x1e0	; 0x1e0 <display_verzending_uit>

00000298 <.LVL30>:

    display_verzending_aan();
 298:	0e 94 d0 00 	call	0x1a0	; 0x1a0 <display_verzending_aan>

0000029c <.LVL31>:
    send_byte(0xC0);            // Start adres (eerste digit)
 29c:	80 ec       	ldi	r24, 0xC0	; 192
 29e:	0e 94 8d 00 	call	0x11a	; 0x11a <send_byte>

000002a2 <.LVL32>:

    if (digits[0] == 0) { // Als linker cijfer 0 is dat cijfer niet laten zien
 2a2:	c1 10       	cpse	r12, r1
 2a4:	1f c0       	rjmp	.+62     	; 0x2e4 <.L10>

000002a6 <.Loc.130>:
        send_byte(0x00);
 2a6:	80 e0       	ldi	r24, 0x00	; 0
 2a8:	0e 94 8d 00 	call	0x11a	; 0x11a <send_byte>

000002ac <.L11>:
    }
    else { // Print eerste cijfer
        send_byte(segmentMap[digits[0]]);
    }
    send_byte(segmentMap[digits[1]]); // Print tweede cijfer
 2ac:	f8 01       	movw	r30, r16
 2ae:	e0 50       	subi	r30, 0x00	; 0
 2b0:	fe 4f       	sbci	r31, 0xFE	; 254

000002b2 <.Loc.133>:
 2b2:	80 81       	ld	r24, Z
 2b4:	0e 94 8d 00 	call	0x11a	; 0x11a <send_byte>

000002b8 <.LVL34>:
    if (digits[2] == 0) { // Als linker cijfer 0 is dat cijfer niet laten zien
 2b8:	b1 10       	cpse	r11, r1
 2ba:	1c c0       	rjmp	.+56     	; 0x2f4 <.L12>

000002bc <.Loc.136>:
        send_byte(0x00);
 2bc:	80 e0       	ldi	r24, 0x00	; 0
 2be:	0e 94 8d 00 	call	0x11a	; 0x11a <send_byte>

000002c2 <.L13>:
    }
    else { // Print derde cijfer
        send_byte(segmentMap[digits[2]]);
    }
    send_byte(segmentMap[digits[3]]); // Print vierde cijfer
 2c2:	c0 50       	subi	r28, 0x00	; 0
 2c4:	de 4f       	sbci	r29, 0xFE	; 254

000002c6 <.Loc.139>:
 2c6:	88 81       	ld	r24, Y
 2c8:	0e 94 8d 00 	call	0x11a	; 0x11a <send_byte>

000002cc <.LVL37>:
    display_verzending_uit();
 2cc:	0e 94 f0 00 	call	0x1e0	; 0x1e0 <display_verzending_uit>

000002d0 <.LVL38>:
}
 2d0:	df 91       	pop	r29
 2d2:	cf 91       	pop	r28

000002d4 <.Loc.142>:
 2d4:	1f 91       	pop	r17
 2d6:	0f 91       	pop	r16

000002d8 <.Loc.143>:
 2d8:	ff 90       	pop	r15
 2da:	ef 90       	pop	r14

000002dc <.Loc.144>:
 2dc:	df 90       	pop	r13
 2de:	cf 90       	pop	r12

000002e0 <.Loc.145>:
 2e0:	bf 90       	pop	r11
 2e2:	08 95       	ret

000002e4 <.L10>:
        send_byte(segmentMap[digits[0]]);
 2e4:	f6 01       	movw	r30, r12
 2e6:	ff 27       	eor	r31, r31

000002e8 <.Loc.148>:
 2e8:	e0 50       	subi	r30, 0x00	; 0
 2ea:	fe 4f       	sbci	r31, 0xFE	; 254

000002ec <.Loc.149>:
 2ec:	80 81       	ld	r24, Z
 2ee:	0e 94 8d 00 	call	0x11a	; 0x11a <send_byte>

000002f2 <.LVL44>:
 2f2:	dc cf       	rjmp	.-72     	; 0x2ac <.L11>

000002f4 <.L12>:
        send_byte(segmentMap[digits[2]]);
 2f4:	f7 01       	movw	r30, r14
 2f6:	ff 27       	eor	r31, r31

000002f8 <.Loc.152>:
 2f8:	e0 50       	subi	r30, 0x00	; 0
 2fa:	fe 4f       	sbci	r31, 0xFE	; 254

000002fc <.Loc.153>:
 2fc:	80 81       	ld	r24, Z
 2fe:	0e 94 8d 00 	call	0x11a	; 0x11a <send_byte>

00000302 <.LVL45>:
 302:	df cf       	rjmp	.-66     	; 0x2c2 <.L13>

00000304 <initialisatie_communicatie>:
#include "Sequence.h"

// Initialisatie communicatiepinnen
void initialisatie_communicatie(void) {
    // Output
    MODNUMMER_DDR |= (1 << MODNUMMER);
 304:	98 9a       	sbi	0x13, 0	; 19

00000306 <.Loc.3>:
    NEXT_MOD_DDR |= (1 << NEXT_MOD);
 306:	99 9a       	sbi	0x13, 1	; 19

00000308 <.Loc.5>:
    ACK_MOD_DDR |= (1 << ACK_MOD);
 308:	9a 9a       	sbi	0x13, 2	; 19

0000030a <.Loc.7>:

    // Input
    LIJN_DDR &= ~(1 << LIJN);
 30a:	57 98       	cbi	0x0a, 7	; 10

0000030c <.Loc.10>:
    NEXT_AGV_DDR &= ~(1 << NEXT_AGV);
 30c:	38 98       	cbi	0x07, 0	; 7

0000030e <.Loc.11>:
    ACK_AGV_DDR &= ~(1 << ACK_AGV);
 30e:	50 98       	cbi	0x0a, 0	; 10

00000310 <.Loc.13>:

    // Laag zetten
    MODNUMMER_PORT &= ~(1 << MODNUMMER); //Detectiemodule = 0, dus laag
 310:	a0 98       	cbi	0x14, 0	; 20

00000312 <.Loc.15>:
    NEXT_MOD_PORT &= ~(1 << NEXT_MOD);
 312:	a1 98       	cbi	0x14, 1	; 20

00000314 <.Loc.17>:
    ACK_MOD_PORT &= ~(1 << ACK_MOD);
 314:	a2 98       	cbi	0x14, 2	; 20

00000316 <.Loc.19>:

    // Pull-up weerstanden activeren
    LIJN_PORT |= (1 << LIJN);
 316:	5f 9a       	sbi	0x0b, 7	; 11

00000318 <.Loc.21>:
    NEXT_AGV_PORT |= (1 << NEXT_AGV);
 318:	40 9a       	sbi	0x08, 0	; 8

0000031a <.Loc.23>:
    ACK_AGV_PORT |= (1 << ACK_AGV);
 31a:	58 9a       	sbi	0x0b, 0	; 11

0000031c <.Loc.25>:
}
 31c:	08 95       	ret

0000031e <initialisatie_RFID>:

// Initialisatie RFID pinnen
void initialisatie_RFID(void) {
    DDRB |= (1 << PB0); // SS-pin als output configureren voor spi
 31e:	20 9a       	sbi	0x04, 0	; 4

00000320 <.Loc.29>:
    PORTB |= (1 << PB0);
 320:	28 9a       	sbi	0x05, 0	; 5

00000322 <.Loc.31>:


    SSR_DDR |= (1 << SSR); // SS rechts output
 322:	ea e0       	ldi	r30, 0x0A	; 10
 324:	f1 e0       	ldi	r31, 0x01	; 1
 326:	80 81       	ld	r24, Z

00000328 <.Loc.32>:
 328:	81 60       	ori	r24, 0x01	; 1
 32a:	80 83       	st	Z, r24

0000032c <.Loc.33>:
    SSL_DDR |= (1 << SSL); // SS links output
 32c:	80 81       	ld	r24, Z

0000032e <.Loc.34>:
 32e:	84 60       	ori	r24, 0x04	; 4
 330:	80 83       	st	Z, r24

00000332 <.Loc.35>:
    SCK_DDR |= (1 << SCK); // SCK output
 332:	21 9a       	sbi	0x04, 1	; 4

00000334 <.Loc.37>:
    MOSI_DDR |= (1 << MOSI); // MOSI output
 334:	22 9a       	sbi	0x04, 2	; 4

00000336 <.Loc.39>:
    MISO_DDR &= ~(1 << MISO); // MISO input
 336:	23 98       	cbi	0x04, 3	; 4

00000338 <.Loc.41>:
    RSTR_DDR |= (1 << RSTR); // RST rechts output
 338:	80 81       	ld	r24, Z

0000033a <.Loc.42>:
 33a:	82 60       	ori	r24, 0x02	; 2
 33c:	80 83       	st	Z, r24

0000033e <.Loc.43>:
    RSTL_DDR |= (1 << RSTL); // RST links output
 33e:	80 81       	ld	r24, Z

00000340 <.Loc.44>:
 340:	88 60       	ori	r24, 0x08	; 8
 342:	80 83       	st	Z, r24

00000344 <.Loc.45>:

    SSR_PORT |= (1 << SSR); // Slave rechts niet selecteren
 344:	eb e0       	ldi	r30, 0x0B	; 11
 346:	f1 e0       	ldi	r31, 0x01	; 1
 348:	80 81       	ld	r24, Z

0000034a <.Loc.46>:
 34a:	81 60       	ori	r24, 0x01	; 1
 34c:	80 83       	st	Z, r24

0000034e <.Loc.47>:
    SSL_PORT |= (1 << SSL); // Slave links niet selecteren
 34e:	80 81       	ld	r24, Z

00000350 <.Loc.48>:
 350:	84 60       	ori	r24, 0x04	; 4
 352:	80 83       	st	Z, r24

00000354 <.Loc.49>:
    RSTR_PORT |= (1 << RSTR);
 354:	80 81       	ld	r24, Z

00000356 <.Loc.50>:
 356:	82 60       	ori	r24, 0x02	; 2
 358:	80 83       	st	Z, r24

0000035a <.Loc.51>:
    RSTL_PORT |= (1 << RSTL);
 35a:	80 81       	ld	r24, Z

0000035c <.Loc.52>:
 35c:	88 60       	ori	r24, 0x08	; 8
 35e:	80 83       	st	Z, r24

00000360 <.Loc.53>:

    SPCR |= (1 << SPE);
 360:	8c b5       	in	r24, 0x2c	; 44

00000362 <.Loc.54>:
 362:	80 64       	ori	r24, 0x40	; 64
 364:	8c bd       	out	0x2c, r24	; 44

00000366 <.Loc.55>:
    SPCR &= ~(1 << DORD);
 366:	8c b5       	in	r24, 0x2c	; 44
 368:	8f 7d       	andi	r24, 0xDF	; 223
 36a:	8c bd       	out	0x2c, r24	; 44

0000036c <.Loc.57>:
    SPCR |= (1 << MSTR);
 36c:	8c b5       	in	r24, 0x2c	; 44

0000036e <.Loc.58>:
 36e:	80 61       	ori	r24, 0x10	; 16
 370:	8c bd       	out	0x2c, r24	; 44

00000372 <.Loc.59>:
    SPCR &= ~(1 << CPOL);
 372:	8c b5       	in	r24, 0x2c	; 44
 374:	87 7f       	andi	r24, 0xF7	; 247
 376:	8c bd       	out	0x2c, r24	; 44

00000378 <.Loc.61>:
    SPCR &= ~(1 << CPHA);
 378:	8c b5       	in	r24, 0x2c	; 44
 37a:	8b 7f       	andi	r24, 0xFB	; 251
 37c:	8c bd       	out	0x2c, r24	; 44

0000037e <.Loc.63>:
    SPCR &= ~(1 << SPR1);
 37e:	8c b5       	in	r24, 0x2c	; 44
 380:	8d 7f       	andi	r24, 0xFD	; 253
 382:	8c bd       	out	0x2c, r24	; 44

00000384 <.Loc.65>:
    SPCR &= ~(1 << SPR0);
 384:	8c b5       	in	r24, 0x2c	; 44
 386:	8e 7f       	andi	r24, 0xFE	; 254
 388:	8c bd       	out	0x2c, r24	; 44

0000038a <.Loc.67>:

    SPSR &= ~(1 << SPI2X);
 38a:	8d b5       	in	r24, 0x2d	; 45
 38c:	8e 7f       	andi	r24, 0xFE	; 254
 38e:	8d bd       	out	0x2d, r24	; 45

00000390 <.Loc.69>:
}
 390:	08 95       	ret

00000392 <RFID_aanzetten>:

// RFID sensor klaarmaken voor verzending
void RFID_aanzetten() {
    // Harde reset
    RSTR_PORT |= (1 << RSTR);
 392:	eb e0       	ldi	r30, 0x0B	; 11
 394:	f1 e0       	ldi	r31, 0x01	; 1
 396:	80 81       	ld	r24, Z

00000398 <.Loc.72>:
 398:	82 60       	ori	r24, 0x02	; 2
 39a:	80 83       	st	Z, r24

0000039c <.LBB14>:
	__builtin_avr_delay_cycles(__ticks_dc);
 39c:	2f ef       	ldi	r18, 0xFF	; 255
 39e:	80 e7       	ldi	r24, 0x70	; 112
 3a0:	92 e0       	ldi	r25, 0x02	; 2

000003a2 <.L1^B1>:
 3a2:	21 50       	subi	r18, 0x01	; 1
 3a4:	80 40       	sbci	r24, 0x00	; 0
 3a6:	90 40       	sbci	r25, 0x00	; 0
 3a8:	e1 f7       	brne	.-8      	; 0x3a2 <.L1^B1>
 3aa:	00 c0       	rjmp	.+0      	; 0x3ac <L0^A>

000003ac <L0^A>:
	...

000003ae <.LBE14>:
    _delay_ms(50);
    RSTR_PORT &= ~(1 << RSTR);
 3ae:	80 81       	ld	r24, Z
 3b0:	8d 7f       	andi	r24, 0xFD	; 253
 3b2:	80 83       	st	Z, r24

000003b4 <.LBB16>:
 3b4:	2f ef       	ldi	r18, 0xFF	; 255
 3b6:	80 e7       	ldi	r24, 0x70	; 112
 3b8:	92 e0       	ldi	r25, 0x02	; 2

000003ba <.L1^B2>:
 3ba:	21 50       	subi	r18, 0x01	; 1
 3bc:	80 40       	sbci	r24, 0x00	; 0
 3be:	90 40       	sbci	r25, 0x00	; 0
 3c0:	e1 f7       	brne	.-8      	; 0x3ba <.L1^B2>
 3c2:	00 c0       	rjmp	.+0      	; 0x3c4 <L0^A>

000003c4 <L0^A>:
	...

000003c6 <.LBE16>:
    _delay_ms(50);
    RSTR_PORT |= (1 << RSTR);
 3c6:	80 81       	ld	r24, Z

000003c8 <.Loc.94>:
 3c8:	82 60       	ori	r24, 0x02	; 2
 3ca:	80 83       	st	Z, r24

000003cc <.LBB18>:
 3cc:	2f ef       	ldi	r18, 0xFF	; 255
 3ce:	80 e7       	ldi	r24, 0x70	; 112
 3d0:	92 e0       	ldi	r25, 0x02	; 2

000003d2 <.L1^B3>:
 3d2:	21 50       	subi	r18, 0x01	; 1
 3d4:	80 40       	sbci	r24, 0x00	; 0
 3d6:	90 40       	sbci	r25, 0x00	; 0
 3d8:	e1 f7       	brne	.-8      	; 0x3d2 <.L1^B3>
 3da:	00 c0       	rjmp	.+0      	; 0x3dc <L0^A>

000003dc <L0^A>:
	...

000003de <.LBE18>:
    _delay_ms(50);

    RSTL_PORT |= (1 << RSTL);
 3de:	80 81       	ld	r24, Z

000003e0 <.Loc.105>:
 3e0:	88 60       	ori	r24, 0x08	; 8
 3e2:	80 83       	st	Z, r24

000003e4 <.LBB20>:
 3e4:	2f ef       	ldi	r18, 0xFF	; 255
 3e6:	80 e7       	ldi	r24, 0x70	; 112
 3e8:	92 e0       	ldi	r25, 0x02	; 2

000003ea <.L1^B4>:
 3ea:	21 50       	subi	r18, 0x01	; 1
 3ec:	80 40       	sbci	r24, 0x00	; 0
 3ee:	90 40       	sbci	r25, 0x00	; 0
 3f0:	e1 f7       	brne	.-8      	; 0x3ea <.L1^B4>
 3f2:	00 c0       	rjmp	.+0      	; 0x3f4 <L0^A>

000003f4 <L0^A>:
	...

000003f6 <.LBE20>:
    _delay_ms(50);
    RSTL_PORT &= ~(1 << RSTL);
 3f6:	80 81       	ld	r24, Z
 3f8:	87 7f       	andi	r24, 0xF7	; 247
 3fa:	80 83       	st	Z, r24

000003fc <.LBB22>:
 3fc:	2f ef       	ldi	r18, 0xFF	; 255
 3fe:	80 e7       	ldi	r24, 0x70	; 112
 400:	92 e0       	ldi	r25, 0x02	; 2

00000402 <.L1^B5>:
 402:	21 50       	subi	r18, 0x01	; 1
 404:	80 40       	sbci	r24, 0x00	; 0
 406:	90 40       	sbci	r25, 0x00	; 0
 408:	e1 f7       	brne	.-8      	; 0x402 <.L1^B5>
 40a:	00 c0       	rjmp	.+0      	; 0x40c <L0^A>

0000040c <L0^A>:
	...

0000040e <.LBE22>:
    _delay_ms(50);
    RSTL_PORT |= (1 << RSTL);
 40e:	80 81       	ld	r24, Z

00000410 <.Loc.127>:
 410:	88 60       	ori	r24, 0x08	; 8
 412:	80 83       	st	Z, r24

00000414 <.LBB24>:
 414:	2f ef       	ldi	r18, 0xFF	; 255
 416:	80 e7       	ldi	r24, 0x70	; 112
 418:	92 e0       	ldi	r25, 0x02	; 2

0000041a <.L1^B6>:
 41a:	21 50       	subi	r18, 0x01	; 1
 41c:	80 40       	sbci	r24, 0x00	; 0
 41e:	90 40       	sbci	r25, 0x00	; 0
 420:	e1 f7       	brne	.-8      	; 0x41a <.L1^B6>
 422:	00 c0       	rjmp	.+0      	; 0x424 <L0^A>

00000424 <L0^A>:
	...

00000426 <.LBE24>:
    _delay_ms(50);

    // Interne transceivers aanzetten
    RFID_write_rechts(ModeReg, 0x3D);
 426:	6d e3       	ldi	r22, 0x3D	; 61
 428:	81 e1       	ldi	r24, 0x11	; 17
 42a:	0e 94 95 02 	call	0x52a	; 0x52a <RFID_write_rechts>

0000042e <.LVL12>:
    RFID_write_rechts(TxASKReg, 0x40);
 42e:	60 e4       	ldi	r22, 0x40	; 64
 430:	85 e1       	ldi	r24, 0x15	; 21
 432:	0e 94 95 02 	call	0x52a	; 0x52a <RFID_write_rechts>

00000436 <.LVL13>:

    RFID_write_links(ModeReg, 0x3D);
 436:	6d e3       	ldi	r22, 0x3D	; 61
 438:	81 e1       	ldi	r24, 0x11	; 17
 43a:	0e 94 ac 02 	call	0x558	; 0x558 <RFID_write_links>

0000043e <.LVL14>:
    RFID_write_links(TxASKReg, 0x40);
 43e:	60 e4       	ldi	r22, 0x40	; 64
 440:	85 e1       	ldi	r24, 0x15	; 21
 442:	0e 94 ac 02 	call	0x558	; 0x558 <RFID_write_links>

00000446 <.LVL15>:

    // Antenne aanzetten
    uint8_t currentR = RFID_read_rechts(TxControlReg);
 446:	84 e1       	ldi	r24, 0x14	; 20
 448:	0e 94 c3 02 	call	0x586	; 0x586 <RFID_read_rechts>

0000044c <.LVL16>:
    if ((currentR & 0x03) != 0x03) {
 44c:	98 2f       	mov	r25, r24
 44e:	93 70       	andi	r25, 0x03	; 3
 450:	93 30       	cpi	r25, 0x03	; 3
 452:	41 f4       	brne	.+16     	; 0x464 <.L6>

00000454 <.L4>:
        RFID_write_rechts(TxControlReg, currentR | 0x03);
    }

    uint8_t currentL = RFID_read_links(TxControlReg);
 454:	84 e1       	ldi	r24, 0x14	; 20
 456:	0e 94 d8 02 	call	0x5b0	; 0x5b0 <RFID_read_links>

0000045a <.LVL18>:
    if ((currentL & 0x03) != 0x03) {
 45a:	98 2f       	mov	r25, r24
 45c:	93 70       	andi	r25, 0x03	; 3
 45e:	93 30       	cpi	r25, 0x03	; 3
 460:	39 f4       	brne	.+14     	; 0x470 <.L7>

00000462 <.L3>:
        RFID_write_links(TxControlReg, currentL | 0x03);
    }
}
 462:	08 95       	ret

00000464 <.L6>:
        RFID_write_rechts(TxControlReg, currentR | 0x03);
 464:	68 2f       	mov	r22, r24
 466:	63 60       	ori	r22, 0x03	; 3
 468:	84 e1       	ldi	r24, 0x14	; 20

0000046a <.Loc.151>:
 46a:	0e 94 95 02 	call	0x52a	; 0x52a <RFID_write_rechts>

0000046e <.LVL22>:
 46e:	f2 cf       	rjmp	.-28     	; 0x454 <.L4>

00000470 <.L7>:
        RFID_write_links(TxControlReg, currentL | 0x03);
 470:	68 2f       	mov	r22, r24
 472:	63 60       	ori	r22, 0x03	; 3
 474:	84 e1       	ldi	r24, 0x14	; 20

00000476 <.Loc.153>:
 476:	0e 94 ac 02 	call	0x558	; 0x558 <RFID_write_links>

0000047a <.LVL25>:
}
 47a:	f3 cf       	rjmp	.-26     	; 0x462 <.L3>

0000047c <initialisatie_IRsensor>:

void initialisatie_IRsensor(void){ // Initialisatie infraroodsensoren
    // Input
    IR_R_DDR &= ~(1 << IR_R);
 47c:	ea e0       	ldi	r30, 0x0A	; 10
 47e:	f1 e0       	ldi	r31, 0x01	; 1
 480:	80 81       	ld	r24, Z
 482:	8f 7d       	andi	r24, 0xDF	; 223
 484:	80 83       	st	Z, r24

00000486 <.Loc.158>:
    IR_L_DDR &= ~(1 << IR_L);
 486:	80 81       	ld	r24, Z
 488:	8f 7e       	andi	r24, 0xEF	; 239
 48a:	80 83       	st	Z, r24

0000048c <.Loc.160>:

    // Pull-up weerstanden activeren
    IR_R_PORT |= (1 << IR_R);
 48c:	eb e0       	ldi	r30, 0x0B	; 11
 48e:	f1 e0       	ldi	r31, 0x01	; 1
 490:	80 81       	ld	r24, Z

00000492 <.Loc.161>:
 492:	80 62       	ori	r24, 0x20	; 32
 494:	80 83       	st	Z, r24

00000496 <.Loc.162>:
    IR_L_PORT |= (1 << IR_L);
 496:	80 81       	ld	r24, Z

00000498 <.Loc.163>:
 498:	80 61       	ori	r24, 0x10	; 16
 49a:	80 83       	st	Z, r24

0000049c <.Loc.164>:
}
 49c:	08 95       	ret

0000049e <initialisatie_display>:

void initialisatie_display(void){// Initialisatie display
    // Output
    CLK_DDR |= (1 << CLK);
 49e:	ea e0       	ldi	r30, 0x0A	; 10
 4a0:	f1 e0       	ldi	r31, 0x01	; 1
 4a2:	80 81       	ld	r24, Z

000004a4 <.Loc.167>:
 4a4:	80 64       	ori	r24, 0x40	; 64
 4a6:	80 83       	st	Z, r24

000004a8 <.Loc.168>:
    DIO_DDR |= (1 << DIO);
 4a8:	80 81       	ld	r24, Z

000004aa <.Loc.169>:
 4aa:	80 68       	ori	r24, 0x80	; 128
 4ac:	80 83       	st	Z, r24

000004ae <.Loc.170>:

    // Initialiseer display
    display_verzending_aan();
 4ae:	0e 94 d0 00 	call	0x1a0	; 0x1a0 <display_verzending_aan>

000004b2 <.LVL26>:
    send_byte(0x8A);
 4b2:	8a e8       	ldi	r24, 0x8A	; 138
 4b4:	0e 94 8d 00 	call	0x11a	; 0x11a <send_byte>

000004b8 <.LVL27>:
    display_verzending_uit();
 4b8:	0e 94 f0 00 	call	0x1e0	; 0x1e0 <display_verzending_uit>

000004bc <.LVL28>:

    // Zet 0 en 0 op het display
    display(0,0);
 4bc:	60 e0       	ldi	r22, 0x00	; 0
 4be:	70 e0       	ldi	r23, 0x00	; 0
 4c0:	80 e0       	ldi	r24, 0x00	; 0
 4c2:	90 e0       	ldi	r25, 0x00	; 0
 4c4:	0e 94 0b 01 	call	0x216	; 0x216 <display>

000004c8 <.LVL29>:

}
 4c8:	08 95       	ret

000004ca <initialisatie_leds>:

void initialisatie_leds(void) { // Leds initialiseren
    // Output
    LED_BLAUW_DDR |= (1 << LED_BLAUW);
 4ca:	3a 9a       	sbi	0x07, 2	; 7

000004cc <.Loc.178>:
    LED_GROEN_DDR |= (1 << LED_GROEN);
 4cc:	3b 9a       	sbi	0x07, 3	; 7

000004ce <.Loc.180>:

    // LEDs uitzetten
    LED_BLAUW_PORT &= ~(1 << LED_BLAUW);
 4ce:	42 98       	cbi	0x08, 2	; 8

000004d0 <.Loc.182>:
    LED_GROEN_PORT &= ~(1 << LED_GROEN);
 4d0:	43 98       	cbi	0x08, 3	; 8

000004d2 <.Loc.184>:

    // Timer voor knipperen leds initialiseren
    TCCR1B |= (1 << CS12);
 4d2:	e1 e8       	ldi	r30, 0x81	; 129
 4d4:	f0 e0       	ldi	r31, 0x00	; 0
 4d6:	80 81       	ld	r24, Z

000004d8 <.Loc.185>:
 4d8:	84 60       	ori	r24, 0x04	; 4
 4da:	80 83       	st	Z, r24

000004dc <.Loc.186>:
    TCCR1B &= ~(1 << CS11);
 4dc:	80 81       	ld	r24, Z
 4de:	8d 7f       	andi	r24, 0xFD	; 253
 4e0:	80 83       	st	Z, r24

000004e2 <.Loc.188>:
    TCCR1B &= ~(1 << CS10);
 4e2:	80 81       	ld	r24, Z
 4e4:	8e 7f       	andi	r24, 0xFE	; 254
 4e6:	80 83       	st	Z, r24

000004e8 <.Loc.190>:
}
 4e8:	08 95       	ret

000004ea <initialisatie_knop>:

void initialisatie_knop(void) { // Knop initialiseren
    KNOP_DDR &= ~(1 << KNOP); //INPUT
 4ea:	3c 98       	cbi	0x07, 4	; 7

000004ec <.Loc.194>:

    KNOP_PORT |= (1 << KNOP); //PULL-UP
 4ec:	44 9a       	sbi	0x08, 4	; 8

000004ee <.Loc.196>:
}
 4ee:	08 95       	ret

000004f0 <initialisatie>:

void initialisatie(void) { // Initialisatie
    initialisatie_communicatie();
 4f0:	0e 94 82 01 	call	0x304	; 0x304 <initialisatie_communicatie>

000004f4 <.LVL30>:
    initialisatie_RFID();
 4f4:	0e 94 8f 01 	call	0x31e	; 0x31e <initialisatie_RFID>

000004f8 <.LVL31>:
    RFID_aanzetten();
 4f8:	0e 94 c9 01 	call	0x392	; 0x392 <RFID_aanzetten>

000004fc <.LVL32>:
    initialisatie_IRsensor();
 4fc:	0e 94 3e 02 	call	0x47c	; 0x47c <initialisatie_IRsensor>

00000500 <.LVL33>:
    initialisatie_display();
 500:	0e 94 4f 02 	call	0x49e	; 0x49e <initialisatie_display>

00000504 <.LVL34>:
    initialisatie_leds();
 504:	0e 94 65 02 	call	0x4ca	; 0x4ca <initialisatie_leds>

00000508 <.LVL35>:
    initialisatie_knop();
 508:	0e 94 75 02 	call	0x4ea	; 0x4ea <initialisatie_knop>

0000050c <.LVL36>:
    sei();
 50c:	78 94       	sei

0000050e <.Loc.206>:
}
 50e:	08 95       	ret

00000510 <main>:
#include "Sequence.h"

int main(void)
{

    initialisatie();
 510:	0e 94 78 02 	call	0x4f0	; 0x4f0 <initialisatie>

00000514 <.L2>:

    while(1) {
        if ((KNOP_PIN & (1 << KNOP))== 0) { // Wachten tot de knop is ingedrukt
 514:	34 99       	sbic	0x06, 4	; 6
 516:	fe cf       	rjmp	.-4      	; 0x514 <.L2>

00000518 <.Loc.5>:
            detectie(); // Start programma
 518:	0e 94 9c 03 	call	0x738	; 0x738 <detectie>

0000051c <.LVL1>:
 51c:	fb cf       	rjmp	.-10     	; 0x514 <.L2>

0000051e <spi_transfer>:
#include "Display.h"
#include "Sequence.h"

// SPI Basic Transceiver
uint8_t spi_transfer(uint8_t data) {
    SPDR = data;
 51e:	8e bd       	out	0x2e, r24	; 46

00000520 <.L2>:
    while (!(SPSR & (1 << SPIF)));
 520:	0d b4       	in	r0, 0x2d	; 45
 522:	07 fe       	sbrs	r0, 7
 524:	fd cf       	rjmp	.-6      	; 0x520 <.L2>

00000526 <.Loc.5>:
    return SPDR;
 526:	8e b5       	in	r24, 0x2e	; 46

00000528 <.Loc.7>:
}
 528:	08 95       	ret

0000052a <RFID_write_rechts>:

// Naar sensor schrijven rechts
void RFID_write_rechts(uint8_t reg, uint8_t value) {
 52a:	1f 93       	push	r17
 52c:	cf 93       	push	r28
 52e:	df 93       	push	r29
 530:	16 2f       	mov	r17, r22

00000532 <.Loc.10>:
    SSR_PORT &= ~(1 << SSR); //ss laag is slave geactiveerd
 532:	cb e0       	ldi	r28, 0x0B	; 11
 534:	d1 e0       	ldi	r29, 0x01	; 1
 536:	98 81       	ld	r25, Y
 538:	9e 7f       	andi	r25, 0xFE	; 254
 53a:	98 83       	st	Y, r25

0000053c <.Loc.12>:
    spi_transfer((reg << 1) & 0x7E);
 53c:	88 0f       	add	r24, r24

0000053e <.Loc.14>:
 53e:	8e 77       	andi	r24, 0x7E	; 126
 540:	0e 94 8f 02 	call	0x51e	; 0x51e <spi_transfer>

00000544 <.LVL4>:
    spi_transfer(value);
 544:	81 2f       	mov	r24, r17
 546:	0e 94 8f 02 	call	0x51e	; 0x51e <spi_transfer>

0000054a <.LVL5>:
    SSR_PORT |= (1 << SSR);
 54a:	88 81       	ld	r24, Y

0000054c <.Loc.17>:
 54c:	81 60       	ori	r24, 0x01	; 1
 54e:	88 83       	st	Y, r24

00000550 <.Loc.18>:
}
 550:	df 91       	pop	r29
 552:	cf 91       	pop	r28
 554:	1f 91       	pop	r17

00000556 <.Loc.19>:
 556:	08 95       	ret

00000558 <RFID_write_links>:

// Naar sensor schrijven links
void RFID_write_links(uint8_t reg, uint8_t value) {
 558:	1f 93       	push	r17
 55a:	cf 93       	push	r28
 55c:	df 93       	push	r29
 55e:	16 2f       	mov	r17, r22

00000560 <.Loc.22>:
    SSL_PORT &= ~(1 << SSL);
 560:	cb e0       	ldi	r28, 0x0B	; 11
 562:	d1 e0       	ldi	r29, 0x01	; 1
 564:	98 81       	ld	r25, Y
 566:	9b 7f       	andi	r25, 0xFB	; 251
 568:	98 83       	st	Y, r25

0000056a <.Loc.24>:
    spi_transfer((reg << 1) & 0x7E);
 56a:	88 0f       	add	r24, r24

0000056c <.Loc.26>:
 56c:	8e 77       	andi	r24, 0x7E	; 126
 56e:	0e 94 8f 02 	call	0x51e	; 0x51e <spi_transfer>

00000572 <.LVL9>:
    spi_transfer(value);
 572:	81 2f       	mov	r24, r17
 574:	0e 94 8f 02 	call	0x51e	; 0x51e <spi_transfer>

00000578 <.LVL10>:
    SSL_PORT |= (1 << SSL);
 578:	88 81       	ld	r24, Y

0000057a <.Loc.29>:
 57a:	84 60       	ori	r24, 0x04	; 4
 57c:	88 83       	st	Y, r24

0000057e <.Loc.30>:
}
 57e:	df 91       	pop	r29
 580:	cf 91       	pop	r28
 582:	1f 91       	pop	r17

00000584 <.Loc.31>:
 584:	08 95       	ret

00000586 <RFID_read_rechts>:

// Sensor uitlezen rechts
uint8_t RFID_read_rechts(uint8_t reg) {
 586:	cf 93       	push	r28
 588:	df 93       	push	r29

0000058a <.Loc.34>:
    uint8_t value;
    SSR_PORT &= ~(1 << SSR);
 58a:	cb e0       	ldi	r28, 0x0B	; 11
 58c:	d1 e0       	ldi	r29, 0x01	; 1
 58e:	98 81       	ld	r25, Y
 590:	9e 7f       	andi	r25, 0xFE	; 254
 592:	98 83       	st	Y, r25

00000594 <.Loc.37>:
    spi_transfer(((reg << 1) & 0x7E) | 0x80);
 594:	88 0f       	add	r24, r24

00000596 <.Loc.39>:
 596:	8e 77       	andi	r24, 0x7E	; 126

00000598 <.Loc.40>:
 598:	80 68       	ori	r24, 0x80	; 128
 59a:	0e 94 8f 02 	call	0x51e	; 0x51e <spi_transfer>

0000059e <.LVL14>:
    value = spi_transfer(0x00);
 59e:	80 e0       	ldi	r24, 0x00	; 0
 5a0:	0e 94 8f 02 	call	0x51e	; 0x51e <spi_transfer>

000005a4 <.LVL15>:
    SSR_PORT |= (1 << SSR);
 5a4:	98 81       	ld	r25, Y

000005a6 <.Loc.44>:
 5a6:	91 60       	ori	r25, 0x01	; 1
 5a8:	98 83       	st	Y, r25

000005aa <.Loc.45>:
    return value;
}
 5aa:	df 91       	pop	r29
 5ac:	cf 91       	pop	r28
 5ae:	08 95       	ret

000005b0 <RFID_read_links>:

// Sensor uitlezen links
uint8_t RFID_read_links(uint8_t reg) {
 5b0:	cf 93       	push	r28
 5b2:	df 93       	push	r29

000005b4 <.Loc.49>:
    uint8_t value;
    SSL_PORT &= ~(1 << SSL);
 5b4:	cb e0       	ldi	r28, 0x0B	; 11
 5b6:	d1 e0       	ldi	r29, 0x01	; 1
 5b8:	98 81       	ld	r25, Y
 5ba:	9b 7f       	andi	r25, 0xFB	; 251
 5bc:	98 83       	st	Y, r25

000005be <.Loc.52>:
    spi_transfer(((reg << 1) & 0x7E) | 0x80);
 5be:	88 0f       	add	r24, r24

000005c0 <.Loc.54>:
 5c0:	8e 77       	andi	r24, 0x7E	; 126

000005c2 <.Loc.55>:
 5c2:	80 68       	ori	r24, 0x80	; 128
 5c4:	0e 94 8f 02 	call	0x51e	; 0x51e <spi_transfer>

000005c8 <.LVL18>:
    value = spi_transfer(0x00);
 5c8:	80 e0       	ldi	r24, 0x00	; 0
 5ca:	0e 94 8f 02 	call	0x51e	; 0x51e <spi_transfer>

000005ce <.LVL19>:
    SSL_PORT |= (1 << SSL);
 5ce:	98 81       	ld	r25, Y

000005d0 <.Loc.59>:
 5d0:	94 60       	ori	r25, 0x04	; 4
 5d2:	98 83       	st	Y, r25

000005d4 <.Loc.60>:
    return value;
}
 5d4:	df 91       	pop	r29
 5d6:	cf 91       	pop	r28
 5d8:	08 95       	ret

000005da <pasje_checken_rechts>:

// Scannen voor pasje rechts
int pasje_checken_rechts() {
 5da:	cf 93       	push	r28
 5dc:	df 93       	push	r29

000005de <.Loc.63>:
    RFID_write_rechts(CommandReg, PCD_IDLE);
 5de:	60 e0       	ldi	r22, 0x00	; 0
 5e0:	81 e0       	ldi	r24, 0x01	; 1
 5e2:	0e 94 95 02 	call	0x52a	; 0x52a <RFID_write_rechts>

000005e6 <.LVL20>:
    RFID_write_rechts(ComIrqReg, 0x7F);
 5e6:	6f e7       	ldi	r22, 0x7F	; 127
 5e8:	84 e0       	ldi	r24, 0x04	; 4
 5ea:	0e 94 95 02 	call	0x52a	; 0x52a <RFID_write_rechts>

000005ee <.LVL21>:
    RFID_write_rechts(FIFOLevelReg, 0x80); // Flush FIFO
 5ee:	60 e8       	ldi	r22, 0x80	; 128
 5f0:	8a e0       	ldi	r24, 0x0A	; 10
 5f2:	0e 94 95 02 	call	0x52a	; 0x52a <RFID_write_rechts>

000005f6 <.LVL22>:

    RFID_write_rechts(FIFODataReg, PICC_REQIDL);
 5f6:	66 e2       	ldi	r22, 0x26	; 38
 5f8:	89 e0       	ldi	r24, 0x09	; 9
 5fa:	0e 94 95 02 	call	0x52a	; 0x52a <RFID_write_rechts>

000005fe <.LVL23>:
    RFID_write_rechts(CommandReg, PCD_TRANSCEIVE);
 5fe:	6c e0       	ldi	r22, 0x0C	; 12
 600:	81 e0       	ldi	r24, 0x01	; 1
 602:	0e 94 95 02 	call	0x52a	; 0x52a <RFID_write_rechts>

00000606 <.LVL24>:
    RFID_write_rechts(BitFramingReg, 0x87); // Start communicatie
 606:	67 e8       	ldi	r22, 0x87	; 135
 608:	8d e0       	ldi	r24, 0x0D	; 13
 60a:	0e 94 95 02 	call	0x52a	; 0x52a <RFID_write_rechts>

0000060e <.LVL25>:

    // Wacht tot pasje gedetecteerd is of er een timeout is
    uint16_t timeout = 1000;
 60e:	c8 ee       	ldi	r28, 0xE8	; 232
 610:	d3 e0       	ldi	r29, 0x03	; 3

00000612 <.L10>:
    while (timeout > 0) {
        uint8_t irq = RFID_read_rechts(ComIrqReg);
 612:	84 e0       	ldi	r24, 0x04	; 4
 614:	0e 94 c3 02 	call	0x586	; 0x586 <RFID_read_rechts>

00000618 <.LVL27>:
        if (irq & 0x30) { // Kijken of Rx and Idle IRQs hoog zijn, als dat zo is dan is er een pasje gedetecteerd
 618:	80 73       	andi	r24, 0x30	; 48

0000061a <.Loc.77>:
 61a:	81 11       	cpse	r24, r1
 61c:	0a c0       	rjmp	.+20     	; 0x632 <.L9>

0000061e <.Loc.78>:
            break;
        }
        timeout--;
 61e:	21 97       	sbiw	r28, 0x01	; 1

00000620 <.LBB9>:
	__builtin_avr_delay_cycles(__ticks_dc);
 620:	85 e3       	ldi	r24, 0x35	; 53

00000622 <.L1^B1>:
 622:	8a 95       	dec	r24
 624:	f1 f7       	brne	.-4      	; 0x622 <.L1^B1>
	...

00000628 <.LBE8>:
    while (timeout > 0) {
 628:	20 97       	sbiw	r28, 0x00	; 0
 62a:	99 f7       	brne	.-26     	; 0x612 <.L10>

0000062c <.Loc.90>:
        _delay_us(10);
    }

    if (timeout == 0)  { // Reactie duurt te lang, dus geen pasje
        return 0;
 62c:	80 e0       	ldi	r24, 0x00	; 0
 62e:	90 e0       	ldi	r25, 0x00	; 0
 630:	0d c0       	rjmp	.+26     	; 0x64c <.L8>

00000632 <.L9>:
 632:	80 e0       	ldi	r24, 0x00	; 0
 634:	90 e0       	ldi	r25, 0x00	; 0

00000636 <.Loc.93>:
    if (timeout == 0)  { // Reactie duurt te lang, dus geen pasje
 636:	cd 2b       	or	r28, r29
 638:	49 f0       	breq	.+18     	; 0x64c <.L8>

0000063a <.Loc.94>:
    }

    // Error checken
    uint8_t error = RFID_read_rechts(ErrorReg);
 63a:	86 e0       	ldi	r24, 0x06	; 6
 63c:	0e 94 c3 02 	call	0x586	; 0x586 <RFID_read_rechts>

00000640 <.LVL31>:
    if (error & 0x13) {
 640:	28 2f       	mov	r18, r24
 642:	23 71       	andi	r18, 0x13	; 19
 644:	81 e0       	ldi	r24, 0x01	; 1

00000646 <.Loc.98>:
 646:	90 e0       	ldi	r25, 0x00	; 0
 648:	21 11       	cpse	r18, r1
 64a:	80 e0       	ldi	r24, 0x00	; 0

0000064c <.L8>:
        return 0;
    }

    return 1; //  Wel pasje
}
 64c:	df 91       	pop	r29
 64e:	cf 91       	pop	r28

00000650 <.Loc.100>:
 650:	08 95       	ret

00000652 <pasje_checken_links>:

// Scannen voor pasje links
int pasje_checken_links() {
 652:	cf 93       	push	r28
 654:	df 93       	push	r29

00000656 <.Loc.102>:
    RFID_write_links(CommandReg, PCD_IDLE);
 656:	60 e0       	ldi	r22, 0x00	; 0
 658:	81 e0       	ldi	r24, 0x01	; 1
 65a:	0e 94 ac 02 	call	0x558	; 0x558 <RFID_write_links>

0000065e <.LVL35>:
    RFID_write_links(ComIrqReg, 0x7F);
 65e:	6f e7       	ldi	r22, 0x7F	; 127
 660:	84 e0       	ldi	r24, 0x04	; 4
 662:	0e 94 ac 02 	call	0x558	; 0x558 <RFID_write_links>

00000666 <.LVL36>:
    RFID_write_links(FIFOLevelReg, 0x80); // Flush FIFO
 666:	60 e8       	ldi	r22, 0x80	; 128
 668:	8a e0       	ldi	r24, 0x0A	; 10
 66a:	0e 94 ac 02 	call	0x558	; 0x558 <RFID_write_links>

0000066e <.LVL37>:

    RFID_write_links(FIFODataReg, PICC_REQIDL);
 66e:	66 e2       	ldi	r22, 0x26	; 38
 670:	89 e0       	ldi	r24, 0x09	; 9
 672:	0e 94 ac 02 	call	0x558	; 0x558 <RFID_write_links>

00000676 <.LVL38>:
    RFID_write_links(CommandReg, PCD_TRANSCEIVE);
 676:	6c e0       	ldi	r22, 0x0C	; 12
 678:	81 e0       	ldi	r24, 0x01	; 1
 67a:	0e 94 ac 02 	call	0x558	; 0x558 <RFID_write_links>

0000067e <.LVL39>:
    RFID_write_links(BitFramingReg, 0x87); // Start communicatie
 67e:	67 e8       	ldi	r22, 0x87	; 135
 680:	8d e0       	ldi	r24, 0x0D	; 13
 682:	0e 94 ac 02 	call	0x558	; 0x558 <RFID_write_links>

00000686 <.LVL40>:

    // Wacht tot pasje gedetecteerd is of er een timeout is
    uint16_t timeout = 1000;
 686:	c8 ee       	ldi	r28, 0xE8	; 232
 688:	d3 e0       	ldi	r29, 0x03	; 3

0000068a <.L17>:
    while (timeout > 0) {
        uint8_t irq = RFID_read_links(ComIrqReg);
 68a:	84 e0       	ldi	r24, 0x04	; 4
 68c:	0e 94 d8 02 	call	0x5b0	; 0x5b0 <RFID_read_links>

00000690 <.LVL42>:
        if (irq & 0x30) { // Kijken of Rx and Idle IRQs hoog zijn, als dat zo is dan is er een pasje gedetecteerd
 690:	80 73       	andi	r24, 0x30	; 48

00000692 <.Loc.116>:
 692:	81 11       	cpse	r24, r1
 694:	0a c0       	rjmp	.+20     	; 0x6aa <.L16>

00000696 <.Loc.117>:
            break;
        }
        timeout--;
 696:	21 97       	sbiw	r28, 0x01	; 1

00000698 <.LBB12>:
 698:	85 e3       	ldi	r24, 0x35	; 53

0000069a <.L1^B2>:
 69a:	8a 95       	dec	r24
 69c:	f1 f7       	brne	.-4      	; 0x69a <.L1^B2>
	...

000006a0 <.LBE11>:
    while (timeout > 0) {
 6a0:	20 97       	sbiw	r28, 0x00	; 0
 6a2:	99 f7       	brne	.-26     	; 0x68a <.L17>

000006a4 <.Loc.129>:
        _delay_us(10);
    }

    if (timeout == 0) { // Reactie duurt te lang, dus geen pasje
        return 0;
 6a4:	80 e0       	ldi	r24, 0x00	; 0
 6a6:	90 e0       	ldi	r25, 0x00	; 0
 6a8:	0d c0       	rjmp	.+26     	; 0x6c4 <.L15>

000006aa <.L16>:
 6aa:	80 e0       	ldi	r24, 0x00	; 0
 6ac:	90 e0       	ldi	r25, 0x00	; 0

000006ae <.Loc.132>:
    if (timeout == 0) { // Reactie duurt te lang, dus geen pasje
 6ae:	cd 2b       	or	r28, r29
 6b0:	49 f0       	breq	.+18     	; 0x6c4 <.L15>

000006b2 <.Loc.133>:
    }

    // Error checken
    uint8_t error = RFID_read_links(ErrorReg);
 6b2:	86 e0       	ldi	r24, 0x06	; 6
 6b4:	0e 94 d8 02 	call	0x5b0	; 0x5b0 <RFID_read_links>

000006b8 <.LVL46>:
    if (error & 0x13) {
 6b8:	28 2f       	mov	r18, r24
 6ba:	23 71       	andi	r18, 0x13	; 19
 6bc:	81 e0       	ldi	r24, 0x01	; 1

000006be <.Loc.137>:
 6be:	90 e0       	ldi	r25, 0x00	; 0
 6c0:	21 11       	cpse	r18, r1
 6c2:	80 e0       	ldi	r24, 0x00	; 0

000006c4 <.L15>:
        return 0;
    }

    return 1; // Wel pasje
}
 6c4:	df 91       	pop	r29
 6c6:	cf 91       	pop	r28

000006c8 <.Loc.139>:
 6c8:	08 95       	ret

000006ca <RFID_checken>:

int RFID_checken(int kant){ // Rechts = 0, links = 1
    if (kant == 0) { // Pakket rechts checken
 6ca:	89 2b       	or	r24, r25
 6cc:	49 f4       	brne	.+18     	; 0x6e0 <.L23>

000006ce <.Loc.143>:
        if (pasje_checken_rechts()) { // Tag gedetecteerd
 6ce:	0e 94 ed 02 	call	0x5da	; 0x5da <pasje_checken_rechts>

000006d2 <.LVL51>:
 6d2:	ac 01       	movw	r20, r24

000006d4 <.Loc.146>:
 6d4:	81 e0       	ldi	r24, 0x01	; 1
 6d6:	90 e0       	ldi	r25, 0x00	; 0
 6d8:	45 2b       	or	r20, r21
 6da:	51 f4       	brne	.+20     	; 0x6f0 <.L22>
 6dc:	80 e0       	ldi	r24, 0x00	; 0
 6de:	08 95       	ret

000006e0 <.L23>:
        else { // Geen tag
            return 0;
        }
    }
    else { // Pakket links checken
        if (pasje_checken_links()) { // Tag gedetecteerd
 6e0:	0e 94 29 03 	call	0x652	; 0x652 <pasje_checken_links>

000006e4 <.LVL53>:
 6e4:	ac 01       	movw	r20, r24

000006e6 <.Loc.150>:
 6e6:	81 e0       	ldi	r24, 0x01	; 1
 6e8:	90 e0       	ldi	r25, 0x00	; 0
 6ea:	45 2b       	or	r20, r21
 6ec:	09 f4       	brne	.+2      	; 0x6f0 <.L22>
 6ee:	80 e0       	ldi	r24, 0x00	; 0

000006f0 <.L22>:
        }
        else { // Geen tag
            return 0;
        }
    }
}
 6f0:	08 95       	ret

000006f2 <stopsignaal_hoog>:
#include "Display.h"
#include "Sequence.h"

// Signaleren naar AGV dat hij moet stoppen
void stopsignaal_hoog(void) {
    ACK_MOD_PORT |= (1 << ACK_MOD);
 6f2:	a2 9a       	sbi	0x14, 2	; 20

000006f4 <.Loc.3>:
}
 6f4:	08 95       	ret

000006f6 <stopsignaal_laag>:
	__builtin_avr_delay_cycles(__ticks_dc);
 6f6:	2f ef       	ldi	r18, 0xFF	; 255
 6f8:	89 e6       	ldi	r24, 0x69	; 105
 6fa:	98 e1       	ldi	r25, 0x18	; 24

000006fc <.L1^B1>:
 6fc:	21 50       	subi	r18, 0x01	; 1
 6fe:	80 40       	sbci	r24, 0x00	; 0
 700:	90 40       	sbci	r25, 0x00	; 0
 702:	e1 f7       	brne	.-8      	; 0x6fc <.L1^B1>
 704:	00 c0       	rjmp	.+0      	; 0x706 <L0^A>

00000706 <L0^A>:
	...

00000708 <.LBE16>:

// Stopsignaal naar AGV weer laag zetten
void stopsignaal_laag(void) {
    _delay_ms(500);
    ACK_MOD_PORT &= ~(1 << ACK_MOD);
 708:	a2 98       	cbi	0x14, 2	; 20

0000070a <.Loc.16>:
}
 70a:	08 95       	ret

0000070c <led_blauw>:

// Blauwe led knipperen omdat pakket leeg is
void led_blauw(void) {
    TCNT1 = 0;
 70c:	10 92 85 00 	sts	0x0085, r1	; 0x800085 <__TEXT_REGION_LENGTH__+0x700085>
 710:	10 92 84 00 	sts	0x0084, r1	; 0x800084 <__TEXT_REGION_LENGTH__+0x700084>

00000714 <.Loc.20>:
    TIFR1 = (1 << TOV1); // Flag verwijderen
 714:	81 e0       	ldi	r24, 0x01	; 1
 716:	86 bb       	out	0x16, r24	; 22

00000718 <.Loc.22>:
    int klaar = 0;
    LED_BLAUW_PORT |= (1 << LED_BLAUW); // Led aan
 718:	42 9a       	sbi	0x08, 2	; 8

0000071a <.L4>:
    while (klaar == 0) { // Wacht tot led weer uit moet
        if ((TIFR1 & (1 << TOV1)) != 0) {
 71a:	b0 9b       	sbis	0x16, 0	; 22
 71c:	fe cf       	rjmp	.-4      	; 0x71a <.L4>

0000071e <.Loc.29>:
            LED_BLAUW_PORT &= ~(1 << LED_BLAUW); // Led uit
 71e:	42 98       	cbi	0x08, 2	; 8

00000720 <.Loc.31>:
            klaar = 1;
        }
    }
}
 720:	08 95       	ret

00000722 <led_groen>:

// Groene led knipperen omdat pakket RFID pasje bevat
void led_groen(void) {
    TCNT1 = 0;
 722:	10 92 85 00 	sts	0x0085, r1	; 0x800085 <__TEXT_REGION_LENGTH__+0x700085>
 726:	10 92 84 00 	sts	0x0084, r1	; 0x800084 <__TEXT_REGION_LENGTH__+0x700084>

0000072a <.Loc.37>:
    TIFR1 = (1 << TOV1); // Flag verwijderen
 72a:	81 e0       	ldi	r24, 0x01	; 1
 72c:	86 bb       	out	0x16, r24	; 22

0000072e <.Loc.39>:
    int klaar = 0;
    LED_GROEN_PORT |= (1 << LED_GROEN); // Led aan
 72e:	43 9a       	sbi	0x08, 3	; 8

00000730 <.L8>:
    while (klaar == 0) { // Wacht tot led weer uit moet
        if ((TIFR1 & (1 << TOV1)) != 0) {
 730:	b0 9b       	sbis	0x16, 0	; 22
 732:	fe cf       	rjmp	.-4      	; 0x730 <.L8>

00000734 <.Loc.46>:
            LED_GROEN_PORT &= ~(1 << LED_GROEN); // Led uit
 734:	43 98       	cbi	0x08, 3	; 8

00000736 <.Loc.48>:
            klaar = 1;
        }
    }
}
 736:	08 95       	ret

00000738 <detectie>:

// Loop die pakketten detecteert
void detectie(void) {
 738:	8f 92       	push	r8
 73a:	9f 92       	push	r9
 73c:	af 92       	push	r10
 73e:	bf 92       	push	r11
 740:	cf 92       	push	r12
 742:	df 92       	push	r13
 744:	ef 92       	push	r14
 746:	ff 92       	push	r15
 748:	0f 93       	push	r16
 74a:	1f 93       	push	r17
 74c:	cf 93       	push	r28
 74e:	df 93       	push	r29

00000750 <.Loc.52>:
    NEXT_MOD_PORT |= (1 << NEXT_MOD); // Signaleren naar AGV dat hij moet gaan rijden
 750:	a1 9a       	sbi	0x14, 1	; 20

00000752 <.Loc.54>:
    int teller_leeg = 0;
    int teller_rfid = 0;
    int rechts = 0; // Zorgt dat pakketten niet dubbel geteld worden
    int links = 0; // Zorgt dat pekketten niet dubbel geteld worden

    while ((NEXT_AGV_PIN & (1 << NEXT_AGV)) == 0) { // Detecteren zolang AGV niet heeft gesignaleerd dat er gestopt moet worden
 752:	30 99       	sbic	0x06, 0	; 6
 754:	a7 c0       	rjmp	.+334    	; 0x8a4 <.L11>

00000756 <.Loc.60>:
    int links = 0; // Zorgt dat pekketten niet dubbel geteld worden
 756:	e1 2c       	mov	r14, r1
 758:	f1 2c       	mov	r15, r1

0000075a <.Loc.61>:
    int rechts = 0; // Zorgt dat pakketten niet dubbel geteld worden
 75a:	00 e0       	ldi	r16, 0x00	; 0
 75c:	10 e0       	ldi	r17, 0x00	; 0

0000075e <.Loc.62>:
    int teller_rfid = 0;
 75e:	a1 2c       	mov	r10, r1
 760:	b1 2c       	mov	r11, r1

00000762 <.Loc.63>:
    int teller_leeg = 0;
 762:	c1 2c       	mov	r12, r1
 764:	d1 2c       	mov	r13, r1

00000766 <.Loc.64>:
        if (((IR_R_PIN & (1 << IR_R)) == 0) && (rechts == 0)) { // Rechts pakket gedetecteerd
 766:	c9 e0       	ldi	r28, 0x09	; 9
 768:	d1 e0       	ldi	r29, 0x01	; 1

0000076a <.Loc.65>:
            stopsignaal_hoog(); // Naar AGV signaleren dat die moet stoppen met rijden
            rechts = 1;
 76a:	88 24       	eor	r8, r8
 76c:	83 94       	inc	r8
 76e:	91 2c       	mov	r9, r1
 770:	72 c0       	rjmp	.+228    	; 0x856 <.L21>

00000772 <.L23>:
            stopsignaal_hoog(); // Naar AGV signaleren dat die moet stoppen met rijden
 772:	0e 94 79 03 	call	0x6f2	; 0x6f2 <stopsignaal_hoog>

00000776 <.LVL8>:
            if (RFID_checken(0) != 0) { // Pakket bevat pasje
 776:	80 e0       	ldi	r24, 0x00	; 0
 778:	90 e0       	ldi	r25, 0x00	; 0
 77a:	0e 94 65 03 	call	0x6ca	; 0x6ca <RFID_checken>

0000077e <.LVL9>:
 77e:	89 2b       	or	r24, r25
 780:	b9 f0       	breq	.+46     	; 0x7b0 <.L14>

00000782 <.Loc.71>:
                teller_rfid++;
 782:	2f ef       	ldi	r18, 0xFF	; 255
 784:	a2 1a       	sub	r10, r18
 786:	b2 0a       	sbc	r11, r18

00000788 <.Loc.73>:
                display(teller_leeg, teller_rfid);
 788:	b5 01       	movw	r22, r10
 78a:	c6 01       	movw	r24, r12
 78c:	0e 94 0b 01 	call	0x216	; 0x216 <display>

00000790 <.LVL11>:
                led_groen();
 790:	0e 94 91 03 	call	0x722	; 0x722 <led_groen>

00000794 <.LBB18>:
 794:	8f ef       	ldi	r24, 0xFF	; 255
 796:	90 e7       	ldi	r25, 0x70	; 112
 798:	22 e0       	ldi	r18, 0x02	; 2

0000079a <.L1^B2>:
 79a:	81 50       	subi	r24, 0x01	; 1
 79c:	90 40       	sbci	r25, 0x00	; 0
 79e:	20 40       	sbci	r18, 0x00	; 0
 7a0:	e1 f7       	brne	.-8      	; 0x79a <.L1^B2>
 7a2:	00 c0       	rjmp	.+0      	; 0x7a4 <L0^A>

000007a4 <L0^A>:
	...

000007a6 <.L15>:
                teller_leeg++;
                display(teller_leeg, teller_rfid);
                led_blauw();
                _delay_ms(50); // Debounce
            }
            stopsignaal_laag(); // Stopsignaal weer laag zetten
 7a6:	0e 94 7b 03 	call	0x6f6	; 0x6f6 <stopsignaal_laag>

000007aa <.LVL14>:
            rechts = 1;
 7aa:	08 2d       	mov	r16, r8
 7ac:	19 2d       	mov	r17, r9
 7ae:	5a c0       	rjmp	.+180    	; 0x864 <.L13>

000007b0 <.L14>:
                teller_leeg++;
 7b0:	8f ef       	ldi	r24, 0xFF	; 255
 7b2:	c8 1a       	sub	r12, r24
 7b4:	d8 0a       	sbc	r13, r24

000007b6 <.Loc.88>:
                display(teller_leeg, teller_rfid);
 7b6:	b5 01       	movw	r22, r10
 7b8:	c6 01       	movw	r24, r12
 7ba:	0e 94 0b 01 	call	0x216	; 0x216 <display>

000007be <.LVL16>:
                led_blauw();
 7be:	0e 94 86 03 	call	0x70c	; 0x70c <led_blauw>

000007c2 <.LBB20>:
 7c2:	9f ef       	ldi	r25, 0xFF	; 255
 7c4:	20 e7       	ldi	r18, 0x70	; 112
 7c6:	82 e0       	ldi	r24, 0x02	; 2

000007c8 <.L1^B3>:
 7c8:	91 50       	subi	r25, 0x01	; 1
 7ca:	20 40       	sbci	r18, 0x00	; 0
 7cc:	80 40       	sbci	r24, 0x00	; 0
 7ce:	e1 f7       	brne	.-8      	; 0x7c8 <.L1^B3>
 7d0:	00 c0       	rjmp	.+0      	; 0x7d2 <L0^A>

000007d2 <L0^A>:
	...

000007d4 <.Loc.98>:
}
 7d4:	e8 cf       	rjmp	.-48     	; 0x7a6 <.L15>

000007d6 <.L24>:
        }
        if (((IR_L_PIN & (1 << IR_L)) == 0)&& (links == 0)) { // Links pakket gedetecteerd
            stopsignaal_hoog(); // Naar AGV signaleren dat die moet stoppen met rijden
 7d6:	0e 94 79 03 	call	0x6f2	; 0x6f2 <stopsignaal_hoog>

000007da <.LVL19>:
            links = 1;
            if (RFID_checken(1) != 0) { // Pakket bevat pasje
 7da:	88 2d       	mov	r24, r8
 7dc:	99 2d       	mov	r25, r9
 7de:	0e 94 65 03 	call	0x6ca	; 0x6ca <RFID_checken>

000007e2 <.LVL20>:
 7e2:	89 2b       	or	r24, r25
 7e4:	b9 f0       	breq	.+46     	; 0x814 <.L17>

000007e6 <.Loc.105>:
                teller_rfid++;
 7e6:	9f ef       	ldi	r25, 0xFF	; 255
 7e8:	a9 1a       	sub	r10, r25
 7ea:	b9 0a       	sbc	r11, r25

000007ec <.Loc.107>:
                display(teller_leeg, teller_rfid);
 7ec:	b5 01       	movw	r22, r10
 7ee:	c6 01       	movw	r24, r12
 7f0:	0e 94 0b 01 	call	0x216	; 0x216 <display>

000007f4 <.LVL22>:
                led_groen();
 7f4:	0e 94 91 03 	call	0x722	; 0x722 <led_groen>

000007f8 <.LBB22>:
	__builtin_avr_delay_cycles(__ticks_dc);
 7f8:	2f ef       	ldi	r18, 0xFF	; 255
 7fa:	80 e7       	ldi	r24, 0x70	; 112
 7fc:	92 e0       	ldi	r25, 0x02	; 2

000007fe <.L1^B4>:
 7fe:	21 50       	subi	r18, 0x01	; 1
 800:	80 40       	sbci	r24, 0x00	; 0
 802:	90 40       	sbci	r25, 0x00	; 0
 804:	e1 f7       	brne	.-8      	; 0x7fe <.L1^B4>
 806:	00 c0       	rjmp	.+0      	; 0x808 <L0^A>

00000808 <L0^A>:
	...

0000080a <.L18>:
                teller_leeg++;
                display(teller_leeg, teller_rfid);
                led_blauw();
                _delay_ms(50);
            }
            stopsignaal_laag(); // Stopsignaal weer laag zetten
 80a:	0e 94 7b 03 	call	0x6f6	; 0x6f6 <stopsignaal_laag>

0000080e <.LVL25>:
            links = 1;
 80e:	e8 2c       	mov	r14, r8
 810:	f9 2c       	mov	r15, r9
 812:	2f c0       	rjmp	.+94     	; 0x872 <.L16>

00000814 <.L17>:
                teller_leeg++;
 814:	2f ef       	ldi	r18, 0xFF	; 255
 816:	c2 1a       	sub	r12, r18
 818:	d2 0a       	sbc	r13, r18

0000081a <.Loc.122>:
                display(teller_leeg, teller_rfid);
 81a:	b5 01       	movw	r22, r10
 81c:	c6 01       	movw	r24, r12
 81e:	0e 94 0b 01 	call	0x216	; 0x216 <display>

00000822 <.LVL27>:
                led_blauw();
 822:	0e 94 86 03 	call	0x70c	; 0x70c <led_blauw>

00000826 <.LBB24>:
 826:	8f ef       	ldi	r24, 0xFF	; 255
 828:	90 e7       	ldi	r25, 0x70	; 112
 82a:	22 e0       	ldi	r18, 0x02	; 2

0000082c <.L1^B5>:
 82c:	81 50       	subi	r24, 0x01	; 1
 82e:	90 40       	sbci	r25, 0x00	; 0
 830:	20 40       	sbci	r18, 0x00	; 0
 832:	e1 f7       	brne	.-8      	; 0x82c <.L1^B5>
 834:	00 c0       	rjmp	.+0      	; 0x836 <L0^A>

00000836 <L0^A>:
	...

00000838 <.Loc.132>:
}
 838:	e8 cf       	rjmp	.-48     	; 0x80a <.L18>

0000083a <.L25>:
	__builtin_avr_delay_cycles(__ticks_dc);
 83a:	8f ef       	ldi	r24, 0xFF	; 255
 83c:	90 e7       	ldi	r25, 0x70	; 112
 83e:	22 e0       	ldi	r18, 0x02	; 2

00000840 <.L1^B6>:
 840:	81 50       	subi	r24, 0x01	; 1
 842:	90 40       	sbci	r25, 0x00	; 0
 844:	20 40       	sbci	r18, 0x00	; 0
 846:	e1 f7       	brne	.-8      	; 0x840 <.L1^B6>
 848:	00 c0       	rjmp	.+0      	; 0x84a <L0^A>

0000084a <L0^A>:
	...

0000084c <.Loc.143>:
        }
        if (((IR_R_PIN & (1 << IR_R)) != 0) && (rechts == 1)) { // Rechts pakket niet meer gedetecteerd
            rechts = 0;
 84c:	00 e0       	ldi	r16, 0x00	; 0
 84e:	10 e0       	ldi	r17, 0x00	; 0

00000850 <.Loc.144>:
}
 850:	16 c0       	rjmp	.+44     	; 0x87e <.L19>

00000852 <.L20>:
    while ((NEXT_AGV_PIN & (1 << NEXT_AGV)) == 0) { // Detecteren zolang AGV niet heeft gesignaleerd dat er gestopt moet worden
 852:	30 99       	sbic	0x06, 0	; 6
 854:	27 c0       	rjmp	.+78     	; 0x8a4 <.L11>

00000856 <.L21>:
        if (((IR_R_PIN & (1 << IR_R)) == 0) && (rechts == 0)) { // Rechts pakket gedetecteerd
 856:	88 81       	ld	r24, Y

00000858 <.Loc.149>:
 858:	85 fd       	sbrc	r24, 5
 85a:	04 c0       	rjmp	.+8      	; 0x864 <.L13>

0000085c <.Loc.150>:
 85c:	01 15       	cp	r16, r1
 85e:	11 05       	cpc	r17, r1
 860:	09 f4       	brne	.+2      	; 0x864 <.L13>

00000862 <L0^A>:
 862:	87 cf       	rjmp	.-242    	; 0x772 <.L23>

00000864 <.L13>:
        if (((IR_L_PIN & (1 << IR_L)) == 0)&& (links == 0)) { // Links pakket gedetecteerd
 864:	88 81       	ld	r24, Y

00000866 <.Loc.153>:
 866:	84 fd       	sbrc	r24, 4
 868:	04 c0       	rjmp	.+8      	; 0x872 <.L16>

0000086a <.Loc.154>:
 86a:	e1 14       	cp	r14, r1
 86c:	f1 04       	cpc	r15, r1
 86e:	09 f4       	brne	.+2      	; 0x872 <.L16>

00000870 <L0^A>:
 870:	b2 cf       	rjmp	.-156    	; 0x7d6 <.L24>

00000872 <.L16>:
        if (((IR_R_PIN & (1 << IR_R)) != 0) && (rechts == 1)) { // Rechts pakket niet meer gedetecteerd
 872:	88 81       	ld	r24, Y

00000874 <.Loc.157>:
 874:	85 ff       	sbrs	r24, 5
 876:	03 c0       	rjmp	.+6      	; 0x87e <.L19>

00000878 <.Loc.158>:
 878:	01 30       	cpi	r16, 0x01	; 1
 87a:	11 05       	cpc	r17, r1
 87c:	f1 f2       	breq	.-68     	; 0x83a <.L25>

0000087e <.L19>:
            _delay_ms(50); // Debouncen
        }
        if (((IR_L_PIN & (1 << IR_L)) != 0) && (links == 1)) { // Links pakket niet meer gedetecteerd
 87e:	88 81       	ld	r24, Y

00000880 <.Loc.161>:
 880:	84 ff       	sbrs	r24, 4
 882:	e7 cf       	rjmp	.-50     	; 0x852 <.L20>

00000884 <.Loc.162>:
 884:	81 e0       	ldi	r24, 0x01	; 1
 886:	e8 16       	cp	r14, r24
 888:	f1 04       	cpc	r15, r1
 88a:	19 f7       	brne	.-58     	; 0x852 <.L20>

0000088c <.LBI30>:
	__builtin_avr_delay_cycles(__ticks_dc);
 88c:	9f ef       	ldi	r25, 0xFF	; 255
 88e:	20 e7       	ldi	r18, 0x70	; 112
 890:	82 e0       	ldi	r24, 0x02	; 2

00000892 <.L1^B7>:
 892:	91 50       	subi	r25, 0x01	; 1
 894:	20 40       	sbci	r18, 0x00	; 0
 896:	80 40       	sbci	r24, 0x00	; 0
 898:	e1 f7       	brne	.-8      	; 0x892 <.L1^B7>
 89a:	00 c0       	rjmp	.+0      	; 0x89c <L0^A>

0000089c <L0^A>:
	...

0000089e <.Loc.172>:
            links = 0;
 89e:	e1 2c       	mov	r14, r1
 8a0:	f1 2c       	mov	r15, r1

000008a2 <.Loc.173>:
}
 8a2:	d7 cf       	rjmp	.-82     	; 0x852 <.L20>

000008a4 <.L11>:
            _delay_ms(50); // Debouncen
        }
    }
}
 8a4:	df 91       	pop	r29
 8a6:	cf 91       	pop	r28
 8a8:	1f 91       	pop	r17
 8aa:	0f 91       	pop	r16
 8ac:	ff 90       	pop	r15
 8ae:	ef 90       	pop	r14
 8b0:	df 90       	pop	r13
 8b2:	cf 90       	pop	r12
 8b4:	bf 90       	pop	r11
 8b6:	af 90       	pop	r10
 8b8:	9f 90       	pop	r9
 8ba:	8f 90       	pop	r8
 8bc:	08 95       	ret

000008be <__umulhisi3>:
 8be:	a2 9f       	mul	r26, r18

000008c0 <.Loc.1>:
 8c0:	b0 01       	movw	r22, r0

000008c2 <.Loc.2>:
 8c2:	b3 9f       	mul	r27, r19

000008c4 <.Loc.3>:
 8c4:	c0 01       	movw	r24, r0

000008c6 <.Loc.4>:
 8c6:	a3 9f       	mul	r26, r19

000008c8 <.Loc.5>:
 8c8:	70 0d       	add	r23, r0

000008ca <.Loc.6>:
 8ca:	81 1d       	adc	r24, r1

000008cc <.Loc.7>:
 8cc:	11 24       	eor	r1, r1

000008ce <.Loc.8>:
 8ce:	91 1d       	adc	r25, r1

000008d0 <.Loc.9>:
 8d0:	b2 9f       	mul	r27, r18

000008d2 <.Loc.10>:
 8d2:	70 0d       	add	r23, r0

000008d4 <.Loc.11>:
 8d4:	81 1d       	adc	r24, r1

000008d6 <.Loc.12>:
 8d6:	11 24       	eor	r1, r1

000008d8 <.Loc.13>:
 8d8:	91 1d       	adc	r25, r1

000008da <.Loc.14>:
 8da:	08 95       	ret

000008dc <_exit>:
 8dc:	f8 94       	cli

000008de <__stop_program>:
 8de:	ff cf       	rjmp	.-2      	; 0x8de <__stop_program>
