
bin\Debug\RFID_module_AGV.elf:     file format elf32-avr

Sections:
Idx Name          Size      VMA       LMA       File off  Algn
  0 .data         0000000c  00800200  00000b4e  00000be2  2**0
                  CONTENTS, ALLOC, LOAD, DATA
  1 .text         00000b4e  00000000  00000000  00000094  2**1
                  CONTENTS, ALLOC, LOAD, READONLY, CODE
  2 .fuse         00000003  00820000  00820000  00000bee  2**0
                  CONTENTS, ALLOC, LOAD, DATA
  3 .comment      00000012  00000000  00000000  00000bf1  2**0
                  CONTENTS, READONLY
  4 .note.gnu.avr.deviceinfo 00000040  00000000  00000000  00000c04  2**2
                  CONTENTS, READONLY, OCTETS
  5 .debug_aranges 00000138  00000000  00000000  00000c48  2**3
                  CONTENTS, READONLY, DEBUGGING, OCTETS
  6 .debug_info   0000271b  00000000  00000000  00000d80  2**0
                  CONTENTS, READONLY, DEBUGGING, OCTETS
  7 .debug_abbrev 000015ee  00000000  00000000  0000349b  2**0
                  CONTENTS, READONLY, DEBUGGING, OCTETS
  8 .debug_line   000022f6  00000000  00000000  00004a89  2**0
                  CONTENTS, READONLY, DEBUGGING, OCTETS
  9 .debug_frame  00000350  00000000  00000000  00006d80  2**2
                  CONTENTS, READONLY, DEBUGGING, OCTETS
 10 .debug_str    000007ae  00000000  00000000  000070d0  2**0
                  CONTENTS, READONLY, DEBUGGING, OCTETS
 11 .debug_line_str 000001f0  00000000  00000000  0000787e  2**0
                  CONTENTS, READONLY, DEBUGGING, OCTETS
 12 .debug_loclists 0000090e  00000000  00000000  00007a6e  2**0
                  CONTENTS, READONLY, DEBUGGING, OCTETS
 13 .debug_rnglists 00000057  00000000  00000000  0000837c  2**0
                  CONTENTS, READONLY, DEBUGGING, OCTETS

Disassembly of section .text:

00000000 <__vectors>:
   0:	0c 94 72 00 	jmp	0xe4	; 0xe4 <__ctors_end>
   4:	0c 94 82 01 	jmp	0x304	; 0x304 <__vector_1>
   8:	0c 94 8b 00 	jmp	0x116	; 0x116 <__bad_interrupt>
   c:	0c 94 8b 00 	jmp	0x116	; 0x116 <__bad_interrupt>
  10:	0c 94 8b 00 	jmp	0x116	; 0x116 <__bad_interrupt>
  14:	0c 94 8b 00 	jmp	0x116	; 0x116 <__bad_interrupt>
  18:	0c 94 8b 00 	jmp	0x116	; 0x116 <__bad_interrupt>
  1c:	0c 94 8b 00 	jmp	0x116	; 0x116 <__bad_interrupt>
  20:	0c 94 8b 00 	jmp	0x116	; 0x116 <__bad_interrupt>
  24:	0c 94 8b 00 	jmp	0x116	; 0x116 <__bad_interrupt>
  28:	0c 94 8b 00 	jmp	0x116	; 0x116 <__bad_interrupt>
  2c:	0c 94 8b 00 	jmp	0x116	; 0x116 <__bad_interrupt>
  30:	0c 94 8b 00 	jmp	0x116	; 0x116 <__bad_interrupt>
  34:	0c 94 8b 00 	jmp	0x116	; 0x116 <__bad_interrupt>
  38:	0c 94 8b 00 	jmp	0x116	; 0x116 <__bad_interrupt>
  3c:	0c 94 8b 00 	jmp	0x116	; 0x116 <__bad_interrupt>
  40:	0c 94 8b 00 	jmp	0x116	; 0x116 <__bad_interrupt>
  44:	0c 94 8b 00 	jmp	0x116	; 0x116 <__bad_interrupt>
  48:	0c 94 8b 00 	jmp	0x116	; 0x116 <__bad_interrupt>
  4c:	0c 94 8b 00 	jmp	0x116	; 0x116 <__bad_interrupt>
  50:	0c 94 8b 00 	jmp	0x116	; 0x116 <__bad_interrupt>
  54:	0c 94 8b 00 	jmp	0x116	; 0x116 <__bad_interrupt>
  58:	0c 94 8b 00 	jmp	0x116	; 0x116 <__bad_interrupt>
  5c:	0c 94 8b 00 	jmp	0x116	; 0x116 <__bad_interrupt>
  60:	0c 94 8b 00 	jmp	0x116	; 0x116 <__bad_interrupt>
  64:	0c 94 8b 00 	jmp	0x116	; 0x116 <__bad_interrupt>
  68:	0c 94 8b 00 	jmp	0x116	; 0x116 <__bad_interrupt>
  6c:	0c 94 8b 00 	jmp	0x116	; 0x116 <__bad_interrupt>
  70:	0c 94 8b 00 	jmp	0x116	; 0x116 <__bad_interrupt>
  74:	0c 94 8b 00 	jmp	0x116	; 0x116 <__bad_interrupt>
  78:	0c 94 8b 00 	jmp	0x116	; 0x116 <__bad_interrupt>
  7c:	0c 94 8b 00 	jmp	0x116	; 0x116 <__bad_interrupt>
  80:	0c 94 8b 00 	jmp	0x116	; 0x116 <__bad_interrupt>
  84:	0c 94 8b 00 	jmp	0x116	; 0x116 <__bad_interrupt>
  88:	0c 94 8b 00 	jmp	0x116	; 0x116 <__bad_interrupt>
  8c:	0c 94 dc 03 	jmp	0x7b8	; 0x7b8 <__vector_35>
  90:	0c 94 8b 00 	jmp	0x116	; 0x116 <__bad_interrupt>
  94:	0c 94 8b 00 	jmp	0x116	; 0x116 <__bad_interrupt>
  98:	0c 94 8b 00 	jmp	0x116	; 0x116 <__bad_interrupt>
  9c:	0c 94 8b 00 	jmp	0x116	; 0x116 <__bad_interrupt>
  a0:	0c 94 8b 00 	jmp	0x116	; 0x116 <__bad_interrupt>
  a4:	0c 94 8b 00 	jmp	0x116	; 0x116 <__bad_interrupt>
  a8:	0c 94 8b 00 	jmp	0x116	; 0x116 <__bad_interrupt>
  ac:	0c 94 8b 00 	jmp	0x116	; 0x116 <__bad_interrupt>
  b0:	0c 94 8b 00 	jmp	0x116	; 0x116 <__bad_interrupt>
  b4:	0c 94 8b 00 	jmp	0x116	; 0x116 <__bad_interrupt>
  b8:	0c 94 8b 00 	jmp	0x116	; 0x116 <__bad_interrupt>
  bc:	0c 94 8b 00 	jmp	0x116	; 0x116 <__bad_interrupt>
  c0:	0c 94 8b 00 	jmp	0x116	; 0x116 <__bad_interrupt>
  c4:	0c 94 8b 00 	jmp	0x116	; 0x116 <__bad_interrupt>
  c8:	0c 94 8b 00 	jmp	0x116	; 0x116 <__bad_interrupt>
  cc:	0c 94 8b 00 	jmp	0x116	; 0x116 <__bad_interrupt>
  d0:	0c 94 8b 00 	jmp	0x116	; 0x116 <__bad_interrupt>
  d4:	0c 94 8b 00 	jmp	0x116	; 0x116 <__bad_interrupt>
  d8:	0c 94 8b 00 	jmp	0x116	; 0x116 <__bad_interrupt>
  dc:	0c 94 8b 00 	jmp	0x116	; 0x116 <__bad_interrupt>
  e0:	0c 94 8b 00 	jmp	0x116	; 0x116 <__bad_interrupt>

000000e4 <__ctors_end>:
  e4:	11 24       	eor	r1, r1
  e6:	1f be       	out	0x3f, r1	; 63
  e8:	cf ef       	ldi	r28, 0xFF	; 255
  ea:	d1 e2       	ldi	r29, 0x21	; 33
  ec:	de bf       	out	0x3e, r29	; 62
  ee:	cd bf       	out	0x3d, r28	; 61
  f0:	00 e0       	ldi	r16, 0x00	; 0
  f2:	0c bf       	out	0x3c, r16	; 60

000000f4 <__do_copy_data>:
  f4:	12 e0       	ldi	r17, 0x02	; 2

000000f6 <.Loc.1>:
  f6:	a0 e0       	ldi	r26, 0x00	; 0

000000f8 <.Loc.2>:
  f8:	b2 e0       	ldi	r27, 0x02	; 2

000000fa <.Loc.3>:
  fa:	ee e4       	ldi	r30, 0x4E	; 78

000000fc <.Loc.4>:
  fc:	fb e0       	ldi	r31, 0x0B	; 11

000000fe <.Loc.5>:
  fe:	00 e0       	ldi	r16, 0x00	; 0

00000100 <.Loc.6>:
 100:	0b bf       	out	0x3b, r16	; 59

00000102 <.Loc.7>:
 102:	02 c0       	rjmp	.+4      	; 0x108 <.L__do_copy_data_start>

00000104 <.L__do_copy_data_loop>:
 104:	07 90       	elpm	r0, Z+

00000106 <.Loc.9>:
 106:	0d 92       	st	X+, r0

00000108 <.L__do_copy_data_start>:
 108:	ac 30       	cpi	r26, 0x0C	; 12

0000010a <.Loc.11>:
 10a:	b1 07       	cpc	r27, r17

0000010c <.Loc.12>:
 10c:	d9 f7       	brne	.-10     	; 0x104 <.L__do_copy_data_loop>

0000010e <L0^A>:
 10e:	0e 94 39 02 	call	0x472	; 0x472 <main>
 112:	0c 94 a5 05 	jmp	0xb4a	; 0xb4a <_exit>

00000116 <__bad_interrupt>:
 116:	0c 94 00 00 	jmp	0	; 0x0 <__vectors>

0000011a <send_byte>:
const uint8_t segmentMap[] = {
    0x3F, 0x06, 0x5B, 0x4F, 0x66, 0x6D, 0x7D, 0x07, 0x7F, 0x6F
};

// Display
void send_byte(uint8_t data) {
 11a:	28 e0       	ldi	r18, 0x08	; 8

0000011c <.Loc.5>:
    for (uint8_t i = 0; i < 8; i++) {
        CLK_LOW();
 11c:	eb e0       	ldi	r30, 0x0B	; 11
 11e:	f1 e0       	ldi	r31, 0x01	; 1
 120:	16 c0       	rjmp	.+44     	; 0x14e <.L4>

00000122 <.L2>:
        if (data & 0x01) DIO_HIGH(); else DIO_LOW();
 122:	90 81       	ld	r25, Z
 124:	9f 77       	andi	r25, 0x7F	; 127
 126:	90 83       	st	Z, r25

00000128 <.L3>:
	#else
		//round up by default
		__ticks_dc = (uint32_t)(ceil(fabs(__tmp)));
	#endif

	__builtin_avr_delay_cycles(__ticks_dc);
 128:	a7 ec       	ldi	r26, 0xC7	; 199
 12a:	b0 e0       	ldi	r27, 0x00	; 0

0000012c <.L1^B1>:
 12c:	11 97       	sbiw	r26, 0x01	; 1
 12e:	f1 f7       	brne	.-4      	; 0x12c <.L1^B1>
 130:	00 c0       	rjmp	.+0      	; 0x132 <L0^A>

00000132 <L0^A>:
	...

00000134 <.LBE20>:
        _delay_us(50);
        CLK_HIGH();
 134:	90 81       	ld	r25, Z
 136:	90 64       	ori	r25, 0x40	; 64
 138:	90 83       	st	Z, r25

0000013a <.LBB22>:
 13a:	a7 ec       	ldi	r26, 0xC7	; 199
 13c:	b0 e0       	ldi	r27, 0x00	; 0

0000013e <.L1^B2>:
 13e:	11 97       	sbiw	r26, 0x01	; 1
 140:	f1 f7       	brne	.-4      	; 0x13e <.L1^B2>
 142:	00 c0       	rjmp	.+0      	; 0x144 <L0^A>

00000144 <L0^A>:
	...

00000146 <.LBE22>:
        _delay_us(50);
        data >>= 1;
 146:	86 95       	lsr	r24

00000148 <.Loc.28>:
    for (uint8_t i = 0; i < 8; i++) {
 148:	21 50       	subi	r18, 0x01	; 1

0000014a <.Loc.30>:
 14a:	22 23       	and	r18, r18
 14c:	49 f0       	breq	.+18     	; 0x160 <.L6>

0000014e <.L4>:
        CLK_LOW();
 14e:	90 81       	ld	r25, Z
 150:	9f 7b       	andi	r25, 0xBF	; 191
 152:	90 83       	st	Z, r25

00000154 <.Loc.32>:
        if (data & 0x01) DIO_HIGH(); else DIO_LOW();
 154:	80 ff       	sbrs	r24, 0
 156:	e5 cf       	rjmp	.-54     	; 0x122 <.L2>

00000158 <.Loc.34>:
 158:	90 81       	ld	r25, Z
 15a:	90 68       	ori	r25, 0x80	; 128
 15c:	90 83       	st	Z, r25
 15e:	e4 cf       	rjmp	.-56     	; 0x128 <.L3>

00000160 <.L6>:
    }
    // Wachten op ACK (Acknowledgement)
    CLK_LOW();
 160:	eb e0       	ldi	r30, 0x0B	; 11
 162:	f1 e0       	ldi	r31, 0x01	; 1
 164:	80 81       	ld	r24, Z

00000166 <.Loc.37>:
 166:	8f 7b       	andi	r24, 0xBF	; 191
 168:	80 83       	st	Z, r24

0000016a <.Loc.38>:
    DIO_INPUT();
 16a:	aa e0       	ldi	r26, 0x0A	; 10
 16c:	b1 e0       	ldi	r27, 0x01	; 1
 16e:	8c 91       	ld	r24, X
 170:	8f 77       	andi	r24, 0x7F	; 127
 172:	8c 93       	st	X, r24

00000174 <.LBB25>:
 174:	87 ec       	ldi	r24, 0xC7	; 199
 176:	90 e0       	ldi	r25, 0x00	; 0

00000178 <.L1^B3>:
 178:	01 97       	sbiw	r24, 0x01	; 1
 17a:	f1 f7       	brne	.-4      	; 0x178 <.L1^B3>
 17c:	00 c0       	rjmp	.+0      	; 0x17e <L0^A>

0000017e <L0^A>:
	...

00000180 <.LBE25>:
    _delay_us(50);
    CLK_HIGH();
 180:	80 81       	ld	r24, Z
 182:	80 64       	ori	r24, 0x40	; 64
 184:	80 83       	st	Z, r24

00000186 <.LBB27>:
 186:	87 ec       	ldi	r24, 0xC7	; 199
 188:	90 e0       	ldi	r25, 0x00	; 0

0000018a <.L1^B4>:
 18a:	01 97       	sbiw	r24, 0x01	; 1
 18c:	f1 f7       	brne	.-4      	; 0x18a <.L1^B4>
 18e:	00 c0       	rjmp	.+0      	; 0x190 <L0^A>

00000190 <L0^A>:
	...

00000192 <.LBE27>:
    _delay_us(50);
    CLK_LOW();
 192:	80 81       	ld	r24, Z
 194:	8f 7b       	andi	r24, 0xBF	; 191
 196:	80 83       	st	Z, r24

00000198 <.Loc.59>:
    DIO_OUTPUT();
 198:	8c 91       	ld	r24, X
 19a:	80 68       	ori	r24, 0x80	; 128
 19c:	8c 93       	st	X, r24

0000019e <.Loc.60>:
}
 19e:	08 95       	ret

000001a0 <tm_start>:

// Display
void tm_start() {
    DIO_OUTPUT(); DIO_HIGH(); CLK_HIGH(); _delay_us(50);
 1a0:	ea e0       	ldi	r30, 0x0A	; 10
 1a2:	f1 e0       	ldi	r31, 0x01	; 1
 1a4:	80 81       	ld	r24, Z
 1a6:	80 68       	ori	r24, 0x80	; 128
 1a8:	80 83       	st	Z, r24

000001aa <.Loc.63>:
 1aa:	eb e0       	ldi	r30, 0x0B	; 11
 1ac:	f1 e0       	ldi	r31, 0x01	; 1
 1ae:	80 81       	ld	r24, Z
 1b0:	80 68       	ori	r24, 0x80	; 128
 1b2:	80 83       	st	Z, r24

000001b4 <.Loc.64>:
 1b4:	80 81       	ld	r24, Z
 1b6:	80 64       	ori	r24, 0x40	; 64
 1b8:	80 83       	st	Z, r24

000001ba <.LBB29>:
 1ba:	87 ec       	ldi	r24, 0xC7	; 199
 1bc:	90 e0       	ldi	r25, 0x00	; 0

000001be <.L1^B5>:
 1be:	01 97       	sbiw	r24, 0x01	; 1
 1c0:	f1 f7       	brne	.-4      	; 0x1be <.L1^B5>
 1c2:	00 c0       	rjmp	.+0      	; 0x1c4 <L0^A>

000001c4 <L0^A>:
	...

000001c6 <.LBE29>:
    DIO_LOW(); _delay_us(50); CLK_LOW();
 1c6:	80 81       	ld	r24, Z
 1c8:	8f 77       	andi	r24, 0x7F	; 127
 1ca:	80 83       	st	Z, r24

000001cc <.LBB31>:
 1cc:	87 ec       	ldi	r24, 0xC7	; 199
 1ce:	90 e0       	ldi	r25, 0x00	; 0

000001d0 <.L1^B6>:
 1d0:	01 97       	sbiw	r24, 0x01	; 1
 1d2:	f1 f7       	brne	.-4      	; 0x1d0 <.L1^B6>
 1d4:	00 c0       	rjmp	.+0      	; 0x1d6 <L0^A>

000001d6 <L0^A>:
	...

000001d8 <.LBE31>:
 1d8:	80 81       	ld	r24, Z
 1da:	8f 7b       	andi	r24, 0xBF	; 191
 1dc:	80 83       	st	Z, r24

000001de <.Loc.85>:
}
 1de:	08 95       	ret

000001e0 <tm_stop>:

// Display
void tm_stop() {
    CLK_LOW(); DIO_LOW(); _delay_us(50);
 1e0:	eb e0       	ldi	r30, 0x0B	; 11
 1e2:	f1 e0       	ldi	r31, 0x01	; 1
 1e4:	80 81       	ld	r24, Z
 1e6:	8f 7b       	andi	r24, 0xBF	; 191
 1e8:	80 83       	st	Z, r24

000001ea <.Loc.88>:
 1ea:	80 81       	ld	r24, Z
 1ec:	8f 77       	andi	r24, 0x7F	; 127
 1ee:	80 83       	st	Z, r24

000001f0 <.LBB33>:
 1f0:	87 ec       	ldi	r24, 0xC7	; 199
 1f2:	90 e0       	ldi	r25, 0x00	; 0

000001f4 <.L1^B7>:
 1f4:	01 97       	sbiw	r24, 0x01	; 1
 1f6:	f1 f7       	brne	.-4      	; 0x1f4 <.L1^B7>
 1f8:	00 c0       	rjmp	.+0      	; 0x1fa <L0^A>

000001fa <L0^A>:
	...

000001fc <.LBE33>:
    CLK_HIGH(); _delay_us(50); DIO_HIGH();
 1fc:	80 81       	ld	r24, Z
 1fe:	80 64       	ori	r24, 0x40	; 64
 200:	80 83       	st	Z, r24

00000202 <.LBB35>:
 202:	87 ec       	ldi	r24, 0xC7	; 199
 204:	90 e0       	ldi	r25, 0x00	; 0

00000206 <.L1^B8>:
 206:	01 97       	sbiw	r24, 0x01	; 1
 208:	f1 f7       	brne	.-4      	; 0x206 <.L1^B8>
 20a:	00 c0       	rjmp	.+0      	; 0x20c <L0^A>

0000020c <L0^A>:
	...

0000020e <.LBE35>:
 20e:	80 81       	ld	r24, Z
 210:	80 68       	ori	r24, 0x80	; 128
 212:	80 83       	st	Z, r24

00000214 <.Loc.109>:
}
 214:	08 95       	ret

00000216 <display>:

// Print cijfers op display
void display(uint16_t teller_leeg, uint16_t teller_rfid) {
 216:	bf 92       	push	r11
 218:	cf 92       	push	r12
 21a:	df 92       	push	r13
 21c:	ef 92       	push	r14
 21e:	ff 92       	push	r15
 220:	0f 93       	push	r16
 222:	1f 93       	push	r17
 224:	cf 93       	push	r28
 226:	df 93       	push	r29
 228:	08 2f       	mov	r16, r24
 22a:	19 2f       	mov	r17, r25
 22c:	c6 2f       	mov	r28, r22
 22e:	d7 2f       	mov	r29, r23

00000230 <.Loc.112>:
    uint8_t digits[4];
    digits[0] = teller_leeg / 10;
 230:	98 01       	movw	r18, r16
 232:	ad ec       	ldi	r26, 0xCD	; 205
 234:	bc ec       	ldi	r27, 0xCC	; 204
 236:	0e 94 96 05 	call	0xb2c	; 0xb2c <__umulhisi3>

0000023a <.Loc.115>:
 23a:	6c 01       	movw	r12, r24
 23c:	d6 94       	lsr	r13
 23e:	c7 94       	ror	r12
 240:	d6 94       	lsr	r13
 242:	c7 94       	ror	r12
 244:	d6 94       	lsr	r13
 246:	c7 94       	ror	r12

00000248 <.Loc.116>:
    digits[1] = teller_leeg % 10;
 248:	c6 01       	movw	r24, r12
 24a:	88 0f       	add	r24, r24
 24c:	99 1f       	adc	r25, r25
 24e:	88 0f       	add	r24, r24
 250:	99 1f       	adc	r25, r25
 252:	8c 0d       	add	r24, r12
 254:	9d 1d       	adc	r25, r13
 256:	88 0f       	add	r24, r24
 258:	99 1f       	adc	r25, r25
 25a:	08 1b       	sub	r16, r24
 25c:	19 0b       	sbc	r17, r25

0000025e <.Loc.118>:
    digits[2] = teller_rfid / 10;
 25e:	9e 01       	movw	r18, r28
 260:	0e 94 96 05 	call	0xb2c	; 0xb2c <__umulhisi3>
 264:	7c 01       	movw	r14, r24
 266:	f6 94       	lsr	r15
 268:	e7 94       	ror	r14
 26a:	f6 94       	lsr	r15
 26c:	e7 94       	ror	r14
 26e:	f6 94       	lsr	r15
 270:	e7 94       	ror	r14

00000272 <.Loc.120>:
 272:	be 2c       	mov	r11, r14

00000274 <.Loc.121>:
    digits[3] = teller_rfid % 10;
 274:	c7 01       	movw	r24, r14
 276:	88 0f       	add	r24, r24
 278:	99 1f       	adc	r25, r25
 27a:	88 0f       	add	r24, r24
 27c:	99 1f       	adc	r25, r25
 27e:	8e 0d       	add	r24, r14
 280:	9f 1d       	adc	r25, r15
 282:	88 0f       	add	r24, r24
 284:	99 1f       	adc	r25, r25
 286:	c8 1b       	sub	r28, r24
 288:	d9 0b       	sbc	r29, r25

0000028a <.Loc.123>:

    tm_start(); send_byte(0x40); tm_stop(); // Data command (auto increment)
 28a:	0e 94 d0 00 	call	0x1a0	; 0x1a0 <tm_start>

0000028e <.LVL28>:
 28e:	80 e4       	ldi	r24, 0x40	; 64
 290:	0e 94 8d 00 	call	0x11a	; 0x11a <send_byte>

00000294 <.LVL29>:
 294:	0e 94 f0 00 	call	0x1e0	; 0x1e0 <tm_stop>

00000298 <.LVL30>:
    tm_start(); send_byte(0xC0);            // Start adres (eerste digit)
 298:	0e 94 d0 00 	call	0x1a0	; 0x1a0 <tm_start>

0000029c <.LVL31>:
 29c:	80 ec       	ldi	r24, 0xC0	; 192
 29e:	0e 94 8d 00 	call	0x11a	; 0x11a <send_byte>

000002a2 <.LVL32>:

    if (digits[0] == 0) {
 2a2:	c1 10       	cpse	r12, r1
 2a4:	1f c0       	rjmp	.+62     	; 0x2e4 <.L10>

000002a6 <.Loc.130>:
        send_byte(0x00);
 2a6:	80 e0       	ldi	r24, 0x00	; 0
 2a8:	0e 94 8d 00 	call	0x11a	; 0x11a <send_byte>

000002ac <.L11>:
    }
    else {
        send_byte(segmentMap[digits[0]]);
    }
    send_byte(segmentMap[digits[1]]);
 2ac:	f8 01       	movw	r30, r16
 2ae:	ee 5f       	subi	r30, 0xFE	; 254
 2b0:	fd 4f       	sbci	r31, 0xFD	; 253

000002b2 <.Loc.133>:
 2b2:	80 81       	ld	r24, Z
 2b4:	0e 94 8d 00 	call	0x11a	; 0x11a <send_byte>

000002b8 <.LVL34>:
    if (digits[2] == 0) {
 2b8:	b1 10       	cpse	r11, r1
 2ba:	1c c0       	rjmp	.+56     	; 0x2f4 <.L12>

000002bc <.Loc.136>:
        send_byte(0x00);
 2bc:	80 e0       	ldi	r24, 0x00	; 0
 2be:	0e 94 8d 00 	call	0x11a	; 0x11a <send_byte>

000002c2 <.L13>:
    }
    else {
        send_byte(segmentMap[digits[2]]);
    }
    send_byte(segmentMap[digits[3]]);
 2c2:	ce 5f       	subi	r28, 0xFE	; 254
 2c4:	dd 4f       	sbci	r29, 0xFD	; 253

000002c6 <.Loc.139>:
 2c6:	88 81       	ld	r24, Y
 2c8:	0e 94 8d 00 	call	0x11a	; 0x11a <send_byte>

000002cc <.LVL37>:
    tm_stop();
 2cc:	0e 94 f0 00 	call	0x1e0	; 0x1e0 <tm_stop>

000002d0 <.LVL38>:
}
 2d0:	df 91       	pop	r29
 2d2:	cf 91       	pop	r28

000002d4 <.Loc.142>:
 2d4:	1f 91       	pop	r17
 2d6:	0f 91       	pop	r16

000002d8 <.Loc.143>:
 2d8:	ff 90       	pop	r15
 2da:	ef 90       	pop	r14

000002dc <.Loc.144>:
 2dc:	df 90       	pop	r13
 2de:	cf 90       	pop	r12

000002e0 <.Loc.145>:
 2e0:	bf 90       	pop	r11
 2e2:	08 95       	ret

000002e4 <.L10>:
        send_byte(segmentMap[digits[0]]);
 2e4:	f6 01       	movw	r30, r12
 2e6:	ff 27       	eor	r31, r31

000002e8 <.Loc.148>:
 2e8:	ee 5f       	subi	r30, 0xFE	; 254
 2ea:	fd 4f       	sbci	r31, 0xFD	; 253

000002ec <.Loc.149>:
 2ec:	80 81       	ld	r24, Z
 2ee:	0e 94 8d 00 	call	0x11a	; 0x11a <send_byte>

000002f2 <.LVL44>:
 2f2:	dc cf       	rjmp	.-72     	; 0x2ac <.L11>

000002f4 <.L12>:
        send_byte(segmentMap[digits[2]]);
 2f4:	f7 01       	movw	r30, r14
 2f6:	ff 27       	eor	r31, r31

000002f8 <.Loc.152>:
 2f8:	ee 5f       	subi	r30, 0xFE	; 254
 2fa:	fd 4f       	sbci	r31, 0xFD	; 253

000002fc <.Loc.153>:
 2fc:	80 81       	ld	r24, Z
 2fe:	0e 94 8d 00 	call	0x11a	; 0x11a <send_byte>

00000302 <.LVL45>:
 302:	df cf       	rjmp	.-66     	; 0x2c2 <.L13>

00000304 <__vector_1>:
#include "Initialisatie.h"
#include "RFID_sensor.h"
#include "Display.h"
#include "Sequence.h"

ISR(INT0_vect) { ///gecheckt, werkt!
 304:	2f 93       	push	r18
 306:	2f b7       	in	r18, 0x3f	; 63
 308:	2f 93       	push	r18
 30a:	8f 93       	push	r24
 30c:	9f 93       	push	r25

0000030e <.Loc.1>:
    NEXT_MOD_PORT &= ~(1 << NEXT_MOD);
 30e:	a1 98       	cbi	0x14, 1	; 20

00000310 <.Loc.3>:
    PORTB &= ~(1 << PB7);
 310:	2f 98       	cbi	0x05, 7	; 5

00000312 <.LBB4>:
	__builtin_avr_delay_cycles(__ticks_dc);
 312:	2f ef       	ldi	r18, 0xFF	; 255
 314:	89 e6       	ldi	r24, 0x69	; 105
 316:	98 e1       	ldi	r25, 0x18	; 24

00000318 <.L1^B1>:
 318:	21 50       	subi	r18, 0x01	; 1
 31a:	80 40       	sbci	r24, 0x00	; 0
 31c:	90 40       	sbci	r25, 0x00	; 0
 31e:	e1 f7       	brne	.-8      	; 0x318 <.L1^B1>
 320:	00 c0       	rjmp	.+0      	; 0x322 <L0^A>

00000322 <L0^A>:
	...

00000324 <.LBE4>:
    _delay_ms(500);
    PORTB |= (1 << PB7);
 324:	2f 9a       	sbi	0x05, 7	; 5

00000326 <.Loc.16>:
}
 326:	9f 91       	pop	r25
 328:	8f 91       	pop	r24
 32a:	2f 91       	pop	r18
 32c:	2f bf       	out	0x3f, r18	; 63
 32e:	2f 91       	pop	r18
 330:	18 95       	reti

00000332 <initialisatie_communicatie>:

void initialisatie_communicatie(void) {
    MODNUMMER_DDR |= (1 << MODNUMMER); // output
 332:	98 9a       	sbi	0x13, 0	; 19

00000334 <.Loc.20>:
    NEXT_MOD_DDR |= (1 << NEXT_MOD);
 334:	99 9a       	sbi	0x13, 1	; 19

00000336 <.Loc.22>:
    ACK_MOD_DDR |= (1 << ACK_MOD);
 336:	9a 9a       	sbi	0x13, 2	; 19

00000338 <.Loc.24>:
    LIJN_DDR &= ~(1 << LIJN); //input
 338:	57 98       	cbi	0x0a, 7	; 10

0000033a <.Loc.26>:
    NEXT_AGV_DDR &= ~(1 << NEXT_AGV);
 33a:	38 98       	cbi	0x07, 0	; 7

0000033c <.Loc.28>:
    ACK_AGV_DDR &= ~(1 << ACK_AGV);
 33c:	50 98       	cbi	0x0a, 0	; 10

0000033e <.Loc.30>:

    MODNUMMER_PORT &= ~(1 << MODNUMMER); //Laag zetten, want detectiemodule
 33e:	a0 98       	cbi	0x14, 0	; 20

00000340 <.Loc.32>:
    NEXT_MOD_PORT &= ~(1 << NEXT_MOD); // dit was modnummer, foutje
 340:	a1 98       	cbi	0x14, 1	; 20

00000342 <.Loc.34>:
    ACK_MOD_PORT &= ~(1 << ACK_MOD);
 342:	a2 98       	cbi	0x14, 2	; 20

00000344 <.Loc.36>:

    LIJN_PORT |= (1 << LIJN); // PULL-UPS ACTIVEREN
 344:	5f 9a       	sbi	0x0b, 7	; 11

00000346 <.Loc.38>:
    NEXT_AGV_PORT |= (1 << NEXT_AGV);
 346:	40 9a       	sbi	0x08, 0	; 8

00000348 <.Loc.40>:
    ACK_AGV_PORT |= (1 << ACK_AGV);
 348:	58 9a       	sbi	0x0b, 0	; 11

0000034a <.Loc.42>:

    // externe interrupt vanuit agv
    EIMSK |= (1 << INT0); // interrupt 0 (pin 21) aanzetten
 34a:	e8 9a       	sbi	0x1d, 0	; 29

0000034c <.Loc.44>:
    EICRA |= (1 << ISC01) | (1 << ISC00);
 34c:	e9 e6       	ldi	r30, 0x69	; 105
 34e:	f0 e0       	ldi	r31, 0x00	; 0
 350:	80 81       	ld	r24, Z

00000352 <.Loc.45>:
 352:	83 60       	ori	r24, 0x03	; 3
 354:	80 83       	st	Z, r24

00000356 <.Loc.46>:

    TCCR3B &= ~(1 << CS32);
 356:	e1 e9       	ldi	r30, 0x91	; 145
 358:	f0 e0       	ldi	r31, 0x00	; 0
 35a:	80 81       	ld	r24, Z
 35c:	8b 7f       	andi	r24, 0xFB	; 251
 35e:	80 83       	st	Z, r24

00000360 <.Loc.48>:
    TCCR3B |= (1 << CS31);
 360:	80 81       	ld	r24, Z

00000362 <.Loc.49>:
 362:	82 60       	ori	r24, 0x02	; 2
 364:	80 83       	st	Z, r24

00000366 <.Loc.50>:
    TCCR3B &= ~(1 << CS30);
 366:	80 81       	ld	r24, Z
 368:	8e 7f       	andi	r24, 0xFE	; 254
 36a:	80 83       	st	Z, r24

0000036c <.Loc.52>:
}
 36c:	08 95       	ret

0000036e <initialisatie_RFID>:

void initialisatie_RFID(void) {
    DDRB |= (1 << PB0); // SS-pin als output configureren voor spi
 36e:	20 9a       	sbi	0x04, 0	; 4

00000370 <.Loc.56>:
    PORTB |= (1 << PB0);
 370:	28 9a       	sbi	0x05, 0	; 5

00000372 <.Loc.58>:


    SSR_DDR |= (1 << SSR);//SS output
 372:	ea e0       	ldi	r30, 0x0A	; 10
 374:	f1 e0       	ldi	r31, 0x01	; 1
 376:	80 81       	ld	r24, Z

00000378 <.Loc.59>:
 378:	81 60       	ori	r24, 0x01	; 1
 37a:	80 83       	st	Z, r24

0000037c <.Loc.60>:
    SSL_DDR |= (1 << SSL);
 37c:	80 81       	ld	r24, Z

0000037e <.Loc.61>:
 37e:	84 60       	ori	r24, 0x04	; 4
 380:	80 83       	st	Z, r24

00000382 <.Loc.62>:
    SCK_DDR |= (1 << SCK);//SCK output
 382:	21 9a       	sbi	0x04, 1	; 4

00000384 <.Loc.64>:
    MOSI_DDR |= (1 << MOSI);//MOSI output
 384:	22 9a       	sbi	0x04, 2	; 4

00000386 <.Loc.66>:
    MISO_DDR &= ~(1 << MISO);//MISO input
 386:	23 98       	cbi	0x04, 3	; 4

00000388 <.Loc.68>:
    RSTR_DDR |= (1 << RSTR);//RST output
 388:	80 81       	ld	r24, Z

0000038a <.Loc.69>:
 38a:	82 60       	ori	r24, 0x02	; 2
 38c:	80 83       	st	Z, r24

0000038e <.Loc.70>:
    RSTL_DDR |= (1 << RSTL);
 38e:	80 81       	ld	r24, Z

00000390 <.Loc.71>:
 390:	88 60       	ori	r24, 0x08	; 8
 392:	80 83       	st	Z, r24

00000394 <.Loc.72>:

    SSR_PORT |= (1 << SSR); // slave niet selecten
 394:	eb e0       	ldi	r30, 0x0B	; 11
 396:	f1 e0       	ldi	r31, 0x01	; 1
 398:	80 81       	ld	r24, Z

0000039a <.Loc.73>:
 39a:	81 60       	ori	r24, 0x01	; 1
 39c:	80 83       	st	Z, r24

0000039e <.Loc.74>:
    SSL_PORT |= (1 << SSL);
 39e:	80 81       	ld	r24, Z

000003a0 <.Loc.75>:
 3a0:	84 60       	ori	r24, 0x04	; 4
 3a2:	80 83       	st	Z, r24

000003a4 <.Loc.76>:
    RSTR_PORT |= (1 << RSTR);
 3a4:	80 81       	ld	r24, Z

000003a6 <.Loc.77>:
 3a6:	82 60       	ori	r24, 0x02	; 2
 3a8:	80 83       	st	Z, r24

000003aa <.Loc.78>:
    RSTL_PORT |= (1 << RSTL);
 3aa:	80 81       	ld	r24, Z

000003ac <.Loc.79>:
 3ac:	88 60       	ori	r24, 0x08	; 8
 3ae:	80 83       	st	Z, r24

000003b0 <.Loc.80>:

    SPCR |= (1 << SPE);
 3b0:	8c b5       	in	r24, 0x2c	; 44

000003b2 <.Loc.81>:
 3b2:	80 64       	ori	r24, 0x40	; 64
 3b4:	8c bd       	out	0x2c, r24	; 44

000003b6 <.Loc.82>:
    SPCR &= ~(1 << DORD);
 3b6:	8c b5       	in	r24, 0x2c	; 44
 3b8:	8f 7d       	andi	r24, 0xDF	; 223
 3ba:	8c bd       	out	0x2c, r24	; 44

000003bc <.Loc.84>:
    SPCR |= (1 << MSTR);
 3bc:	8c b5       	in	r24, 0x2c	; 44

000003be <.Loc.85>:
 3be:	80 61       	ori	r24, 0x10	; 16
 3c0:	8c bd       	out	0x2c, r24	; 44

000003c2 <.Loc.86>:
    SPCR &= ~(1 << CPOL);
 3c2:	8c b5       	in	r24, 0x2c	; 44
 3c4:	87 7f       	andi	r24, 0xF7	; 247
 3c6:	8c bd       	out	0x2c, r24	; 44

000003c8 <.Loc.88>:
    SPCR &= ~(1 << CPHA);
 3c8:	8c b5       	in	r24, 0x2c	; 44
 3ca:	8b 7f       	andi	r24, 0xFB	; 251
 3cc:	8c bd       	out	0x2c, r24	; 44

000003ce <.Loc.90>:
    SPCR &= ~(1 << SPR1);
 3ce:	8c b5       	in	r24, 0x2c	; 44
 3d0:	8d 7f       	andi	r24, 0xFD	; 253
 3d2:	8c bd       	out	0x2c, r24	; 44

000003d4 <.Loc.92>:
    SPCR &= ~(1 << SPR0);
 3d4:	8c b5       	in	r24, 0x2c	; 44
 3d6:	8e 7f       	andi	r24, 0xFE	; 254
 3d8:	8c bd       	out	0x2c, r24	; 44

000003da <.Loc.94>:

    SPSR &= ~(1 << SPI2X);
 3da:	8d b5       	in	r24, 0x2d	; 45
 3dc:	8e 7f       	andi	r24, 0xFE	; 254
 3de:	8d bd       	out	0x2d, r24	; 45

000003e0 <.Loc.96>:
}
 3e0:	08 95       	ret

000003e2 <initialisatie_IRsensor>:

void initialisatie_IRsensor(void){
    IR_R_DDR &= ~(1 << IR_R); //input
 3e2:	ea e0       	ldi	r30, 0x0A	; 10
 3e4:	f1 e0       	ldi	r31, 0x01	; 1
 3e6:	80 81       	ld	r24, Z
 3e8:	8f 7d       	andi	r24, 0xDF	; 223
 3ea:	80 83       	st	Z, r24

000003ec <.Loc.100>:
    IR_L_DDR &= ~(1 << IR_L); //input
 3ec:	80 81       	ld	r24, Z
 3ee:	8f 7e       	andi	r24, 0xEF	; 239
 3f0:	80 83       	st	Z, r24

000003f2 <.Loc.102>:

    IR_R_PORT |= (1 << IR_R);
 3f2:	eb e0       	ldi	r30, 0x0B	; 11
 3f4:	f1 e0       	ldi	r31, 0x01	; 1
 3f6:	80 81       	ld	r24, Z

000003f8 <.Loc.103>:
 3f8:	80 62       	ori	r24, 0x20	; 32
 3fa:	80 83       	st	Z, r24

000003fc <.Loc.104>:
    IR_L_PORT |= (1 << IR_L);
 3fc:	80 81       	ld	r24, Z

000003fe <.Loc.105>:
 3fe:	80 61       	ori	r24, 0x10	; 16
 400:	80 83       	st	Z, r24

00000402 <.Loc.106>:
}
 402:	08 95       	ret

00000404 <initialisatie_display>:

void initialisatie_display(void){// initialisatie display
    // Stel pinnen in als output
    CLK_DDR |= (1 << CLK);
 404:	ea e0       	ldi	r30, 0x0A	; 10
 406:	f1 e0       	ldi	r31, 0x01	; 1
 408:	80 81       	ld	r24, Z

0000040a <.Loc.109>:
 40a:	80 64       	ori	r24, 0x40	; 64
 40c:	80 83       	st	Z, r24

0000040e <.Loc.110>:
    DIO_DDR |= (1 << DIO);
 40e:	80 81       	ld	r24, Z

00000410 <.Loc.111>:
 410:	80 68       	ori	r24, 0x80	; 128
 412:	80 83       	st	Z, r24

00000414 <.Loc.112>:

    // Initialiseer display: Commando 0x8A zet display AAN en helderheid op een gemiddeld niveau
    tm_start();
 414:	0e 94 d0 00 	call	0x1a0	; 0x1a0 <tm_start>

00000418 <.LVL2>:
    send_byte(0x8A);
 418:	8a e8       	ldi	r24, 0x8A	; 138
 41a:	0e 94 8d 00 	call	0x11a	; 0x11a <send_byte>

0000041e <.LVL3>:
    tm_stop();
 41e:	0e 94 f0 00 	call	0x1e0	; 0x1e0 <tm_stop>

00000422 <.LVL4>:
    // start met 0 op het display
    display(0,0);
 422:	60 e0       	ldi	r22, 0x00	; 0
 424:	70 e0       	ldi	r23, 0x00	; 0
 426:	80 e0       	ldi	r24, 0x00	; 0
 428:	90 e0       	ldi	r25, 0x00	; 0
 42a:	0e 94 0b 01 	call	0x216	; 0x216 <display>

0000042e <.LVL5>:

}
 42e:	08 95       	ret

00000430 <initialisatie_leds>:

void initialisatie_leds(void) {
    LED_BLAUW_DDR |= (1 << LED_BLAUW);
 430:	3a 9a       	sbi	0x07, 2	; 7

00000432 <.Loc.120>:
    LED_GROEN_DDR |= (1 << LED_GROEN);
 432:	3b 9a       	sbi	0x07, 3	; 7

00000434 <.Loc.122>:

    LED_BLAUW_PORT &= ~(1 << LED_BLAUW);
 434:	42 98       	cbi	0x08, 2	; 8

00000436 <.Loc.124>:
    LED_GROEN_PORT &= ~(1 << LED_GROEN);
 436:	43 98       	cbi	0x08, 3	; 8

00000438 <.Loc.126>:

    TCCR1B |= (1 << CS12);
 438:	e1 e8       	ldi	r30, 0x81	; 129
 43a:	f0 e0       	ldi	r31, 0x00	; 0
 43c:	80 81       	ld	r24, Z

0000043e <.Loc.127>:
 43e:	84 60       	ori	r24, 0x04	; 4
 440:	80 83       	st	Z, r24

00000442 <.Loc.128>:
    TCCR1B &= ~(1 << CS11);
 442:	80 81       	ld	r24, Z
 444:	8d 7f       	andi	r24, 0xFD	; 253
 446:	80 83       	st	Z, r24

00000448 <.Loc.130>:
    TCCR1B &= ~(1 << CS10);
 448:	80 81       	ld	r24, Z
 44a:	8e 7f       	andi	r24, 0xFE	; 254
 44c:	80 83       	st	Z, r24

0000044e <.Loc.132>:
}
 44e:	08 95       	ret

00000450 <initialisatie_knop>:

void initialisatie_knop(void) {
    KNOP_DDR &= ~(1 << KNOP); //INPUT
 450:	3c 98       	cbi	0x07, 4	; 7

00000452 <.Loc.136>:

    KNOP_PORT |= (1 << KNOP); //PULL-UP
 452:	44 9a       	sbi	0x08, 4	; 8

00000454 <.Loc.138>:
}
 454:	08 95       	ret

00000456 <initialisatie>:

void initialisatie(void) { //pinnen initialiseren
    initialisatie_communicatie();
 456:	0e 94 99 01 	call	0x332	; 0x332 <initialisatie_communicatie>

0000045a <.LVL6>:
    initialisatie_RFID();
 45a:	0e 94 b7 01 	call	0x36e	; 0x36e <initialisatie_RFID>

0000045e <.LVL7>:
    initialisatie_IRsensor();
 45e:	0e 94 f1 01 	call	0x3e2	; 0x3e2 <initialisatie_IRsensor>

00000462 <.LVL8>:
    initialisatie_display();
 462:	0e 94 02 02 	call	0x404	; 0x404 <initialisatie_display>

00000466 <.LVL9>:
    initialisatie_leds();
 466:	0e 94 18 02 	call	0x430	; 0x430 <initialisatie_leds>

0000046a <.LVL10>:
    initialisatie_knop();
 46a:	0e 94 28 02 	call	0x450	; 0x450 <initialisatie_knop>

0000046e <.LVL11>:
    sei();
 46e:	78 94       	sei

00000470 <.Loc.147>:
}
 470:	08 95       	ret

00000472 <main>:
#include "Testen.h"

int main(void)
{

    initialisatie();
 472:	0e 94 2b 02 	call	0x456	; 0x456 <initialisatie>

00000476 <.LBB4>:
 476:	2f ef       	ldi	r18, 0xFF	; 255
 478:	87 ea       	ldi	r24, 0xA7	; 167
 47a:	91 e6       	ldi	r25, 0x61	; 97

0000047c <.L1^B1>:
 47c:	21 50       	subi	r18, 0x01	; 1
 47e:	80 40       	sbci	r24, 0x00	; 0
 480:	90 40       	sbci	r25, 0x00	; 0
 482:	e1 f7       	brne	.-8      	; 0x47c <.L1^B1>
 484:	00 c0       	rjmp	.+0      	; 0x486 <L0^A>

00000486 <L0^A>:
	...

00000488 <.L2>:

    while(1);*/


    while(1) {
        if ((KNOP_PIN & (1 << KNOP))== 0) {
 488:	34 99       	sbic	0x06, 4	; 6
 48a:	fe cf       	rjmp	.-4      	; 0x488 <.L2>

0000048c <.Loc.14>:
            sequence();
 48c:	0e 94 0a 04 	call	0x814	; 0x814 <sequence>

00000490 <.LVL2>:
 490:	fb cf       	rjmp	.-10     	; 0x488 <.L2>

00000492 <spi_transfer>:
#include "Display.h"
#include "Sequence.h"

// SPI Basic Transceiver
uint8_t spi_transfer(uint8_t data) {
    SPDR = data;
 492:	8e bd       	out	0x2e, r24	; 46

00000494 <.L2>:
    while (!(SPSR & (1 << SPIF))); /// HIER ZIT EEN FOUT///
 494:	0d b4       	in	r0, 0x2d	; 45
 496:	07 fe       	sbrs	r0, 7
 498:	fd cf       	rjmp	.-6      	; 0x494 <.L2>

0000049a <.Loc.5>:
    return SPDR;
 49a:	8e b5       	in	r24, 0x2e	; 46

0000049c <.Loc.7>:
}
 49c:	08 95       	ret

0000049e <write_reg_R>:

// Write to RC522 Register rechts
void write_reg_R(uint8_t reg, uint8_t value) {
 49e:	1f 93       	push	r17
 4a0:	cf 93       	push	r28
 4a2:	df 93       	push	r29
 4a4:	16 2f       	mov	r17, r22

000004a6 <.Loc.10>:
    SSR_PORT &= ~(1 << SSR); //ss laag is slave geactiveerd
 4a6:	cb e0       	ldi	r28, 0x0B	; 11
 4a8:	d1 e0       	ldi	r29, 0x01	; 1
 4aa:	98 81       	ld	r25, Y
 4ac:	9e 7f       	andi	r25, 0xFE	; 254
 4ae:	98 83       	st	Y, r25

000004b0 <.Loc.12>:
    spi_transfer((reg << 1) & 0x7E);
 4b0:	88 0f       	add	r24, r24

000004b2 <.Loc.14>:
 4b2:	8e 77       	andi	r24, 0x7E	; 126
 4b4:	0e 94 49 02 	call	0x492	; 0x492 <spi_transfer>

000004b8 <.LVL4>:
    spi_transfer(value);
 4b8:	81 2f       	mov	r24, r17
 4ba:	0e 94 49 02 	call	0x492	; 0x492 <spi_transfer>

000004be <.LVL5>:
    SSR_PORT |= (1 << SSR);
 4be:	88 81       	ld	r24, Y

000004c0 <.Loc.17>:
 4c0:	81 60       	ori	r24, 0x01	; 1
 4c2:	88 83       	st	Y, r24

000004c4 <.Loc.18>:
}
 4c4:	df 91       	pop	r29
 4c6:	cf 91       	pop	r28
 4c8:	1f 91       	pop	r17

000004ca <.Loc.19>:
 4ca:	08 95       	ret

000004cc <read_reg_R>:

// Read from RC522 Register rechts
uint8_t read_reg_R(uint8_t reg) {
 4cc:	cf 93       	push	r28
 4ce:	df 93       	push	r29

000004d0 <.Loc.22>:
    uint8_t value;
    SSR_PORT &= ~(1 << SSR);
 4d0:	cb e0       	ldi	r28, 0x0B	; 11
 4d2:	d1 e0       	ldi	r29, 0x01	; 1
 4d4:	98 81       	ld	r25, Y
 4d6:	9e 7f       	andi	r25, 0xFE	; 254
 4d8:	98 83       	st	Y, r25

000004da <.Loc.25>:
    spi_transfer(((reg << 1) & 0x7E) | 0x80);
 4da:	88 0f       	add	r24, r24

000004dc <.Loc.27>:
 4dc:	8e 77       	andi	r24, 0x7E	; 126

000004de <.Loc.28>:
 4de:	80 68       	ori	r24, 0x80	; 128
 4e0:	0e 94 49 02 	call	0x492	; 0x492 <spi_transfer>

000004e4 <.LVL9>:
    value = spi_transfer(0x00);
 4e4:	80 e0       	ldi	r24, 0x00	; 0
 4e6:	0e 94 49 02 	call	0x492	; 0x492 <spi_transfer>

000004ea <.LVL10>:
    SSR_PORT |= (1 << SSR);
 4ea:	98 81       	ld	r25, Y

000004ec <.Loc.32>:
 4ec:	91 60       	ori	r25, 0x01	; 1
 4ee:	98 83       	st	Y, r25

000004f0 <.Loc.33>:
    return value;
}
 4f0:	df 91       	pop	r29
 4f2:	cf 91       	pop	r28
 4f4:	08 95       	ret

000004f6 <write_reg_L>:

// Write to RC522 Register links
void write_reg_L(uint8_t reg, uint8_t value) {
 4f6:	1f 93       	push	r17
 4f8:	cf 93       	push	r28
 4fa:	df 93       	push	r29
 4fc:	16 2f       	mov	r17, r22

000004fe <.Loc.37>:
    SSL_PORT &= ~(1 << SSL);
 4fe:	cb e0       	ldi	r28, 0x0B	; 11
 500:	d1 e0       	ldi	r29, 0x01	; 1
 502:	98 81       	ld	r25, Y
 504:	9b 7f       	andi	r25, 0xFB	; 251
 506:	98 83       	st	Y, r25

00000508 <.Loc.39>:
    spi_transfer((reg << 1) & 0x7E);
 508:	88 0f       	add	r24, r24

0000050a <.Loc.41>:
 50a:	8e 77       	andi	r24, 0x7E	; 126
 50c:	0e 94 49 02 	call	0x492	; 0x492 <spi_transfer>

00000510 <.LVL13>:
    spi_transfer(value);
 510:	81 2f       	mov	r24, r17
 512:	0e 94 49 02 	call	0x492	; 0x492 <spi_transfer>

00000516 <.LVL14>:
    SSL_PORT |= (1 << SSL);
 516:	88 81       	ld	r24, Y

00000518 <.Loc.44>:
 518:	84 60       	ori	r24, 0x04	; 4
 51a:	88 83       	st	Y, r24

0000051c <.Loc.45>:
}
 51c:	df 91       	pop	r29
 51e:	cf 91       	pop	r28
 520:	1f 91       	pop	r17

00000522 <.Loc.46>:
 522:	08 95       	ret

00000524 <read_reg_L>:

// Read from RC522 Register links
uint8_t read_reg_L(uint8_t reg) {
 524:	cf 93       	push	r28
 526:	df 93       	push	r29

00000528 <.Loc.49>:
    uint8_t value;
    SSL_PORT &= ~(1 << SSL);
 528:	cb e0       	ldi	r28, 0x0B	; 11
 52a:	d1 e0       	ldi	r29, 0x01	; 1
 52c:	98 81       	ld	r25, Y
 52e:	9b 7f       	andi	r25, 0xFB	; 251
 530:	98 83       	st	Y, r25

00000532 <.Loc.52>:
    spi_transfer(((reg << 1) & 0x7E) | 0x80);
 532:	88 0f       	add	r24, r24

00000534 <.Loc.54>:
 534:	8e 77       	andi	r24, 0x7E	; 126

00000536 <.Loc.55>:
 536:	80 68       	ori	r24, 0x80	; 128
 538:	0e 94 49 02 	call	0x492	; 0x492 <spi_transfer>

0000053c <.LVL18>:
    value = spi_transfer(0x00);
 53c:	80 e0       	ldi	r24, 0x00	; 0
 53e:	0e 94 49 02 	call	0x492	; 0x492 <spi_transfer>

00000542 <.LVL19>:
    SSL_PORT |= (1 << SSL);
 542:	98 81       	ld	r25, Y

00000544 <.Loc.59>:
 544:	94 60       	ori	r25, 0x04	; 4
 546:	98 83       	st	Y, r25

00000548 <.Loc.60>:
    return value;
}
 548:	df 91       	pop	r29
 54a:	cf 91       	pop	r28
 54c:	08 95       	ret

0000054e <rc522_init>:

// Initialize the RC522
void rc522_init() {
    // Perform a hard reset by cycling the RST pin

    RSTR_PORT |= (1 << RSTR);
 54e:	eb e0       	ldi	r30, 0x0B	; 11
 550:	f1 e0       	ldi	r31, 0x01	; 1
 552:	80 81       	ld	r24, Z

00000554 <.Loc.64>:
 554:	82 60       	ori	r24, 0x02	; 2
 556:	80 83       	st	Z, r24

00000558 <.LBB28>:
 558:	2f ef       	ldi	r18, 0xFF	; 255
 55a:	80 e7       	ldi	r24, 0x70	; 112
 55c:	92 e0       	ldi	r25, 0x02	; 2

0000055e <.L1^B1>:
 55e:	21 50       	subi	r18, 0x01	; 1
 560:	80 40       	sbci	r24, 0x00	; 0
 562:	90 40       	sbci	r25, 0x00	; 0
 564:	e1 f7       	brne	.-8      	; 0x55e <.L1^B1>
 566:	00 c0       	rjmp	.+0      	; 0x568 <L0^A>

00000568 <L0^A>:
	...

0000056a <.LBE28>:
    _delay_ms(50);
    RSTR_PORT &= ~(1 << RSTR);
 56a:	80 81       	ld	r24, Z
 56c:	8d 7f       	andi	r24, 0xFD	; 253
 56e:	80 83       	st	Z, r24

00000570 <.LBB30>:
 570:	2f ef       	ldi	r18, 0xFF	; 255
 572:	80 e7       	ldi	r24, 0x70	; 112
 574:	92 e0       	ldi	r25, 0x02	; 2

00000576 <.L1^B2>:
 576:	21 50       	subi	r18, 0x01	; 1
 578:	80 40       	sbci	r24, 0x00	; 0
 57a:	90 40       	sbci	r25, 0x00	; 0
 57c:	e1 f7       	brne	.-8      	; 0x576 <.L1^B2>
 57e:	00 c0       	rjmp	.+0      	; 0x580 <L0^A>

00000580 <L0^A>:
	...

00000582 <.LBE30>:
    _delay_ms(50);
    RSTR_PORT |= (1 << RSTR);
 582:	80 81       	ld	r24, Z

00000584 <.Loc.86>:
 584:	82 60       	ori	r24, 0x02	; 2
 586:	80 83       	st	Z, r24

00000588 <.LBB32>:
 588:	2f ef       	ldi	r18, 0xFF	; 255
 58a:	80 e7       	ldi	r24, 0x70	; 112
 58c:	92 e0       	ldi	r25, 0x02	; 2

0000058e <.L1^B3>:
 58e:	21 50       	subi	r18, 0x01	; 1
 590:	80 40       	sbci	r24, 0x00	; 0
 592:	90 40       	sbci	r25, 0x00	; 0
 594:	e1 f7       	brne	.-8      	; 0x58e <.L1^B3>
 596:	00 c0       	rjmp	.+0      	; 0x598 <L0^A>

00000598 <L0^A>:
	...

0000059a <.LBE32>:
    _delay_ms(50);

    RSTL_PORT |= (1 << RSTL);
 59a:	80 81       	ld	r24, Z

0000059c <.Loc.97>:
 59c:	88 60       	ori	r24, 0x08	; 8
 59e:	80 83       	st	Z, r24

000005a0 <.LBB34>:
 5a0:	2f ef       	ldi	r18, 0xFF	; 255
 5a2:	80 e7       	ldi	r24, 0x70	; 112
 5a4:	92 e0       	ldi	r25, 0x02	; 2

000005a6 <.L1^B4>:
 5a6:	21 50       	subi	r18, 0x01	; 1
 5a8:	80 40       	sbci	r24, 0x00	; 0
 5aa:	90 40       	sbci	r25, 0x00	; 0
 5ac:	e1 f7       	brne	.-8      	; 0x5a6 <.L1^B4>
 5ae:	00 c0       	rjmp	.+0      	; 0x5b0 <L0^A>

000005b0 <L0^A>:
	...

000005b2 <.LBE34>:
    _delay_ms(50);
    RSTL_PORT &= ~(1 << RSTL);
 5b2:	80 81       	ld	r24, Z
 5b4:	87 7f       	andi	r24, 0xF7	; 247
 5b6:	80 83       	st	Z, r24

000005b8 <.LBB36>:
 5b8:	2f ef       	ldi	r18, 0xFF	; 255
 5ba:	80 e7       	ldi	r24, 0x70	; 112
 5bc:	92 e0       	ldi	r25, 0x02	; 2

000005be <.L1^B5>:
 5be:	21 50       	subi	r18, 0x01	; 1
 5c0:	80 40       	sbci	r24, 0x00	; 0
 5c2:	90 40       	sbci	r25, 0x00	; 0
 5c4:	e1 f7       	brne	.-8      	; 0x5be <.L1^B5>
 5c6:	00 c0       	rjmp	.+0      	; 0x5c8 <L0^A>

000005c8 <L0^A>:
	...

000005ca <.LBE36>:
    _delay_ms(50);
    RSTL_PORT |= (1 << RSTL);
 5ca:	80 81       	ld	r24, Z

000005cc <.Loc.119>:
 5cc:	88 60       	ori	r24, 0x08	; 8
 5ce:	80 83       	st	Z, r24

000005d0 <.LBB38>:
 5d0:	2f ef       	ldi	r18, 0xFF	; 255
 5d2:	80 e7       	ldi	r24, 0x70	; 112
 5d4:	92 e0       	ldi	r25, 0x02	; 2

000005d6 <.L1^B6>:
 5d6:	21 50       	subi	r18, 0x01	; 1
 5d8:	80 40       	sbci	r24, 0x00	; 0
 5da:	90 40       	sbci	r25, 0x00	; 0
 5dc:	e1 f7       	brne	.-8      	; 0x5d6 <.L1^B6>
 5de:	00 c0       	rjmp	.+0      	; 0x5e0 <L0^A>

000005e0 <L0^A>:
	...

000005e2 <.LBE38>:
    _delay_ms(50);

    // Default configuration to wake up internal transceivers
    write_reg_R(ModeReg, 0x3D);
 5e2:	6d e3       	ldi	r22, 0x3D	; 61
 5e4:	81 e1       	ldi	r24, 0x11	; 17
 5e6:	0e 94 4f 02 	call	0x49e	; 0x49e <write_reg_R>

000005ea <.LVL32>:
    write_reg_R(TxASKReg, 0x40);
 5ea:	60 e4       	ldi	r22, 0x40	; 64
 5ec:	85 e1       	ldi	r24, 0x15	; 21
 5ee:	0e 94 4f 02 	call	0x49e	; 0x49e <write_reg_R>

000005f2 <.LVL33>:

    write_reg_L(ModeReg, 0x3D);
 5f2:	6d e3       	ldi	r22, 0x3D	; 61
 5f4:	81 e1       	ldi	r24, 0x11	; 17
 5f6:	0e 94 7b 02 	call	0x4f6	; 0x4f6 <write_reg_L>

000005fa <.LVL34>:
    write_reg_L(TxASKReg, 0x40);
 5fa:	60 e4       	ldi	r22, 0x40	; 64
 5fc:	85 e1       	ldi	r24, 0x15	; 21
 5fe:	0e 94 7b 02 	call	0x4f6	; 0x4f6 <write_reg_L>

00000602 <.LVL35>:

    // Turn on the reading antenna
    uint8_t currentR = read_reg_R(TxControlReg);
 602:	84 e1       	ldi	r24, 0x14	; 20
 604:	0e 94 66 02 	call	0x4cc	; 0x4cc <read_reg_R>

00000608 <.LVL36>:
    if ((currentR & 0x03) != 0x03) {
 608:	98 2f       	mov	r25, r24
 60a:	93 70       	andi	r25, 0x03	; 3
 60c:	93 30       	cpi	r25, 0x03	; 3
 60e:	41 f4       	brne	.+16     	; 0x620 <.L11>

00000610 <.L9>:
        write_reg_R(TxControlReg, currentR | 0x03);
    }

    uint8_t currentL = read_reg_L(TxControlReg);
 610:	84 e1       	ldi	r24, 0x14	; 20
 612:	0e 94 92 02 	call	0x524	; 0x524 <read_reg_L>

00000616 <.LVL38>:
    if ((currentL & 0x03) != 0x03) {
 616:	98 2f       	mov	r25, r24
 618:	93 70       	andi	r25, 0x03	; 3
 61a:	93 30       	cpi	r25, 0x03	; 3
 61c:	39 f4       	brne	.+14     	; 0x62c <.L12>

0000061e <.L8>:
        write_reg_L(TxControlReg, currentL | 0x03);
    }
}
 61e:	08 95       	ret

00000620 <.L11>:
        write_reg_R(TxControlReg, currentR | 0x03);
 620:	68 2f       	mov	r22, r24
 622:	63 60       	ori	r22, 0x03	; 3
 624:	84 e1       	ldi	r24, 0x14	; 20

00000626 <.Loc.143>:
 626:	0e 94 4f 02 	call	0x49e	; 0x49e <write_reg_R>

0000062a <.LVL42>:
 62a:	f2 cf       	rjmp	.-28     	; 0x610 <.L9>

0000062c <.L12>:
        write_reg_L(TxControlReg, currentL | 0x03);
 62c:	68 2f       	mov	r22, r24
 62e:	63 60       	ori	r22, 0x03	; 3
 630:	84 e1       	ldi	r24, 0x14	; 20

00000632 <.Loc.145>:
 632:	0e 94 7b 02 	call	0x4f6	; 0x4f6 <write_reg_L>

00000636 <.LVL45>:
}
 636:	f3 cf       	rjmp	.-26     	; 0x61e <.L8>

00000638 <tag_detectedR>:

// Scan for a passive RFID tag rechts
int tag_detectedR() {
 638:	cf 93       	push	r28
 63a:	df 93       	push	r29

0000063c <.Loc.148>:
    write_reg_R(CommandReg, PCD_IDLE);
 63c:	60 e0       	ldi	r22, 0x00	; 0
 63e:	81 e0       	ldi	r24, 0x01	; 1
 640:	0e 94 4f 02 	call	0x49e	; 0x49e <write_reg_R>

00000644 <.LVL46>:
    write_reg_R(ComIrqReg, 0x7F);
 644:	6f e7       	ldi	r22, 0x7F	; 127
 646:	84 e0       	ldi	r24, 0x04	; 4
 648:	0e 94 4f 02 	call	0x49e	; 0x49e <write_reg_R>

0000064c <.LVL47>:
    write_reg_R(FIFOLevelReg, 0x80); // Flush FIFO
 64c:	60 e8       	ldi	r22, 0x80	; 128
 64e:	8a e0       	ldi	r24, 0x0A	; 10
 650:	0e 94 4f 02 	call	0x49e	; 0x49e <write_reg_R>

00000654 <.LVL48>:

    write_reg_R(FIFODataReg, PICC_REQIDL);
 654:	66 e2       	ldi	r22, 0x26	; 38
 656:	89 e0       	ldi	r24, 0x09	; 9
 658:	0e 94 4f 02 	call	0x49e	; 0x49e <write_reg_R>

0000065c <.LVL49>:
    write_reg_R(CommandReg, PCD_TRANSCEIVE);
 65c:	6c e0       	ldi	r22, 0x0C	; 12
 65e:	81 e0       	ldi	r24, 0x01	; 1
 660:	0e 94 4f 02 	call	0x49e	; 0x49e <write_reg_R>

00000664 <.LVL50>:
    write_reg_R(BitFramingReg, 0x87); // Start communication
 664:	67 e8       	ldi	r22, 0x87	; 135
 666:	8d e0       	ldi	r24, 0x0D	; 13
 668:	0e 94 4f 02 	call	0x49e	; 0x49e <write_reg_R>

0000066c <.LVL51>:

    // Wait for the operations to complete or timeout
    uint16_t timeout = 1000;
 66c:	c8 ee       	ldi	r28, 0xE8	; 232
 66e:	d3 e0       	ldi	r29, 0x03	; 3

00000670 <.L15>:
    while (timeout > 0) {
        uint8_t irq = read_reg_R(ComIrqReg);
 670:	84 e0       	ldi	r24, 0x04	; 4
 672:	0e 94 66 02 	call	0x4cc	; 0x4cc <read_reg_R>

00000676 <.LVL53>:
        if (irq & 0x30) { // Check if Rx and Idle IRQs are set
 676:	80 73       	andi	r24, 0x30	; 48

00000678 <.Loc.162>:
 678:	81 11       	cpse	r24, r1
 67a:	0a c0       	rjmp	.+20     	; 0x690 <.L14>

0000067c <.Loc.163>:
            break;
        }
        timeout--;
 67c:	21 97       	sbiw	r28, 0x01	; 1

0000067e <.LBB41>:
	__builtin_avr_delay_cycles(__ticks_dc);
 67e:	85 e3       	ldi	r24, 0x35	; 53

00000680 <.L1^B7>:
 680:	8a 95       	dec	r24
 682:	f1 f7       	brne	.-4      	; 0x680 <.L1^B7>
	...

00000686 <.LBE40>:
    while (timeout > 0) {
 686:	20 97       	sbiw	r28, 0x00	; 0
 688:	99 f7       	brne	.-26     	; 0x670 <.L15>

0000068a <.Loc.175>:
        _delay_us(10);
    }

    if (timeout == 0) return 0;
 68a:	80 e0       	ldi	r24, 0x00	; 0
 68c:	90 e0       	ldi	r25, 0x00	; 0
 68e:	0d c0       	rjmp	.+26     	; 0x6aa <.L13>

00000690 <.L14>:
 690:	80 e0       	ldi	r24, 0x00	; 0
 692:	90 e0       	ldi	r25, 0x00	; 0

00000694 <.Loc.178>:
 694:	cd 2b       	or	r28, r29
 696:	49 f0       	breq	.+18     	; 0x6aa <.L13>

00000698 <.Loc.179>:

    // Check for operational or buffer errors
    uint8_t error = read_reg_R(ErrorReg);
 698:	86 e0       	ldi	r24, 0x06	; 6
 69a:	0e 94 66 02 	call	0x4cc	; 0x4cc <read_reg_R>

0000069e <.LVL57>:
    if (error & 0x13) return 0;
 69e:	28 2f       	mov	r18, r24
 6a0:	23 71       	andi	r18, 0x13	; 19
 6a2:	81 e0       	ldi	r24, 0x01	; 1

000006a4 <.Loc.183>:
 6a4:	90 e0       	ldi	r25, 0x00	; 0
 6a6:	21 11       	cpse	r18, r1
 6a8:	80 e0       	ldi	r24, 0x00	; 0

000006aa <.L13>:

    return 1;
}
 6aa:	df 91       	pop	r29
 6ac:	cf 91       	pop	r28

000006ae <.Loc.185>:
 6ae:	08 95       	ret

000006b0 <tag_detectedL>:

// Scan for a passive RFID tag links
int tag_detectedL() {
 6b0:	cf 93       	push	r28
 6b2:	df 93       	push	r29

000006b4 <.Loc.187>:
    write_reg_L(CommandReg, PCD_IDLE);
 6b4:	60 e0       	ldi	r22, 0x00	; 0
 6b6:	81 e0       	ldi	r24, 0x01	; 1
 6b8:	0e 94 7b 02 	call	0x4f6	; 0x4f6 <write_reg_L>

000006bc <.LVL61>:
    write_reg_L(ComIrqReg, 0x7F);
 6bc:	6f e7       	ldi	r22, 0x7F	; 127
 6be:	84 e0       	ldi	r24, 0x04	; 4
 6c0:	0e 94 7b 02 	call	0x4f6	; 0x4f6 <write_reg_L>

000006c4 <.LVL62>:
    write_reg_L(FIFOLevelReg, 0x80); // Flush FIFO
 6c4:	60 e8       	ldi	r22, 0x80	; 128
 6c6:	8a e0       	ldi	r24, 0x0A	; 10
 6c8:	0e 94 7b 02 	call	0x4f6	; 0x4f6 <write_reg_L>

000006cc <.LVL63>:

    write_reg_L(FIFODataReg, PICC_REQIDL);
 6cc:	66 e2       	ldi	r22, 0x26	; 38
 6ce:	89 e0       	ldi	r24, 0x09	; 9
 6d0:	0e 94 7b 02 	call	0x4f6	; 0x4f6 <write_reg_L>

000006d4 <.LVL64>:
    write_reg_L(CommandReg, PCD_TRANSCEIVE);
 6d4:	6c e0       	ldi	r22, 0x0C	; 12
 6d6:	81 e0       	ldi	r24, 0x01	; 1
 6d8:	0e 94 7b 02 	call	0x4f6	; 0x4f6 <write_reg_L>

000006dc <.LVL65>:
    write_reg_L(BitFramingReg, 0x87); // Start communication
 6dc:	67 e8       	ldi	r22, 0x87	; 135
 6de:	8d e0       	ldi	r24, 0x0D	; 13
 6e0:	0e 94 7b 02 	call	0x4f6	; 0x4f6 <write_reg_L>

000006e4 <.LVL66>:

    // Wait for the operations to complete or timeout
    uint16_t timeout = 1000;
 6e4:	c8 ee       	ldi	r28, 0xE8	; 232
 6e6:	d3 e0       	ldi	r29, 0x03	; 3

000006e8 <.L22>:
    while (timeout > 0) {
        uint8_t irq = read_reg_L(ComIrqReg);
 6e8:	84 e0       	ldi	r24, 0x04	; 4
 6ea:	0e 94 92 02 	call	0x524	; 0x524 <read_reg_L>

000006ee <.LVL68>:
        if (irq & 0x30) { // Check if Rx and Idle IRQs are set
 6ee:	80 73       	andi	r24, 0x30	; 48

000006f0 <.Loc.201>:
 6f0:	81 11       	cpse	r24, r1
 6f2:	0a c0       	rjmp	.+20     	; 0x708 <.L21>

000006f4 <.Loc.202>:
            break;
        }
        timeout--;
 6f4:	21 97       	sbiw	r28, 0x01	; 1

000006f6 <.LBB44>:
 6f6:	85 e3       	ldi	r24, 0x35	; 53

000006f8 <.L1^B8>:
 6f8:	8a 95       	dec	r24
 6fa:	f1 f7       	brne	.-4      	; 0x6f8 <.L1^B8>
	...

000006fe <.LBE43>:
    while (timeout > 0) {
 6fe:	20 97       	sbiw	r28, 0x00	; 0
 700:	99 f7       	brne	.-26     	; 0x6e8 <.L22>

00000702 <.Loc.214>:
        _delay_us(10);
    }

    if (timeout == 0) return 0;
 702:	80 e0       	ldi	r24, 0x00	; 0
 704:	90 e0       	ldi	r25, 0x00	; 0
 706:	0d c0       	rjmp	.+26     	; 0x722 <.L20>

00000708 <.L21>:
 708:	80 e0       	ldi	r24, 0x00	; 0
 70a:	90 e0       	ldi	r25, 0x00	; 0

0000070c <.Loc.217>:
 70c:	cd 2b       	or	r28, r29
 70e:	49 f0       	breq	.+18     	; 0x722 <.L20>

00000710 <.Loc.218>:

    // Check for operational or buffer errors
    uint8_t error = read_reg_L(ErrorReg);
 710:	86 e0       	ldi	r24, 0x06	; 6
 712:	0e 94 92 02 	call	0x524	; 0x524 <read_reg_L>

00000716 <.LVL72>:
    if (error & 0x13) return 0;
 716:	28 2f       	mov	r18, r24
 718:	23 71       	andi	r18, 0x13	; 19
 71a:	81 e0       	ldi	r24, 0x01	; 1

0000071c <.Loc.222>:
 71c:	90 e0       	ldi	r25, 0x00	; 0
 71e:	21 11       	cpse	r18, r1
 720:	80 e0       	ldi	r24, 0x00	; 0

00000722 <.L20>:

    return 1;
}
 722:	df 91       	pop	r29
 724:	cf 91       	pop	r28

00000726 <.Loc.224>:
 726:	08 95       	ret

00000728 <RFID_opstarten>:

void RFID_opstarten(void) {
    initialisatie_RFID();
 728:	0e 94 b7 01 	call	0x36e	; 0x36e <initialisatie_RFID>

0000072c <.LVL76>:
    rc522_init();
 72c:	0e 94 a7 02 	call	0x54e	; 0x54e <rc522_init>

00000730 <.LVL77>:
            else {
                LED_BLAUW_PORT &= ~(1 << LED_BLAUW);
            }
        }
    }*/
}
 730:	08 95       	ret

00000732 <RFID_scannen>:

// hoe zorg je dat je hier na 2 sec weer uit bent? Is 1 keer checken genoeg?
int RFID_scannen(int kant){ // kant = 0 = rechts, kant = 1 = links
    if (kant == 0) { //doosje rechts
 732:	89 2b       	or	r24, r25
 734:	d1 f4       	brne	.+52     	; 0x76a <.L29>

00000736 <.Loc.232>:
        if (tag_detectedR()) { //tag gedetecteerd
 736:	0e 94 1c 03 	call	0x638	; 0x638 <tag_detectedR>

0000073a <.LVL79>:
 73a:	00 97       	sbiw	r24, 0x00	; 0
 73c:	61 f0       	breq	.+24     	; 0x756 <.L30>

0000073e <.LBB46>:
	__builtin_avr_delay_cycles(__ticks_dc);
 73e:	2f ef       	ldi	r18, 0xFF	; 255
 740:	31 ee       	ldi	r19, 0xE1	; 225
 742:	44 e0       	ldi	r20, 0x04	; 4

00000744 <.L1^B9>:
 744:	21 50       	subi	r18, 0x01	; 1
 746:	30 40       	sbci	r19, 0x00	; 0
 748:	40 40       	sbci	r20, 0x00	; 0
 74a:	e1 f7       	brne	.-8      	; 0x744 <.L1^B9>
 74c:	00 c0       	rjmp	.+0      	; 0x74e <L0^A>

0000074e <L0^A>:
	...

00000750 <.LBE46>:
            _delay_ms(100);
            return 1;
 750:	81 e0       	ldi	r24, 0x01	; 1
 752:	90 e0       	ldi	r25, 0x00	; 0
 754:	08 95       	ret

00000756 <.L30>:
 756:	2f ef       	ldi	r18, 0xFF	; 255
 758:	31 ee       	ldi	r19, 0xE1	; 225
 75a:	44 e0       	ldi	r20, 0x04	; 4

0000075c <.L1^B10>:
 75c:	21 50       	subi	r18, 0x01	; 1
 75e:	30 40       	sbci	r19, 0x00	; 0
 760:	40 40       	sbci	r20, 0x00	; 0
 762:	e1 f7       	brne	.-8      	; 0x75c <.L1^B10>
 764:	00 c0       	rjmp	.+0      	; 0x766 <L0^A>

00000766 <L0^A>:
	...

00000768 <.LBE48>:
        }
        else { // geen tag
            _delay_ms(100);
            return 0;
 768:	08 95       	ret

0000076a <.L29>:
        }
    }
    else { // doosje links
        if (tag_detectedL()) { // tag gedetecteerd
 76a:	0e 94 58 03 	call	0x6b0	; 0x6b0 <tag_detectedL>

0000076e <.LVL85>:
 76e:	00 97       	sbiw	r24, 0x00	; 0
 770:	61 f0       	breq	.+24     	; 0x78a <.L32>

00000772 <.LBB50>:
 772:	8f ef       	ldi	r24, 0xFF	; 255
 774:	91 ee       	ldi	r25, 0xE1	; 225
 776:	24 e0       	ldi	r18, 0x04	; 4

00000778 <.L1^B11>:
 778:	81 50       	subi	r24, 0x01	; 1
 77a:	90 40       	sbci	r25, 0x00	; 0
 77c:	20 40       	sbci	r18, 0x00	; 0
 77e:	e1 f7       	brne	.-8      	; 0x778 <.L1^B11>
 780:	00 c0       	rjmp	.+0      	; 0x782 <L0^A>

00000782 <L0^A>:
	...

00000784 <.LBE50>:
            _delay_ms(100);
            return 1;
 784:	81 e0       	ldi	r24, 0x01	; 1
 786:	90 e0       	ldi	r25, 0x00	; 0
 788:	08 95       	ret

0000078a <.L32>:
 78a:	3f ef       	ldi	r19, 0xFF	; 255
 78c:	41 ee       	ldi	r20, 0xE1	; 225
 78e:	24 e0       	ldi	r18, 0x04	; 4

00000790 <.L1^B12>:
 790:	31 50       	subi	r19, 0x01	; 1
 792:	40 40       	sbci	r20, 0x00	; 0
 794:	20 40       	sbci	r18, 0x00	; 0
 796:	e1 f7       	brne	.-8      	; 0x790 <.L1^B12>
 798:	00 c0       	rjmp	.+0      	; 0x79a <L0^A>

0000079a <L0^A>:
	...

0000079c <.LBE52>:
        else { // geen tag
            _delay_ms(100);
            return 0;
        }
    }
}
 79c:	08 95       	ret

0000079e <acknowledge_module>:
#include "Display.h"
#include "Sequence.h"


void acknowledge_module(void) {
    ACK_MOD_PORT |= (1 << ACK_MOD);
 79e:	a2 9a       	sbi	0x14, 2	; 20

000007a0 <.Loc.3>:
    TCNT3 = 0;
 7a0:	10 92 95 00 	sts	0x0095, r1	; 0x800095 <__TEXT_REGION_LENGTH__+0x700095>
 7a4:	10 92 94 00 	sts	0x0094, r1	; 0x800094 <__TEXT_REGION_LENGTH__+0x700094>

000007a8 <.Loc.5>:
    TIFR3 = (1 << TOV3);
 7a8:	81 e0       	ldi	r24, 0x01	; 1
 7aa:	88 bb       	out	0x18, r24	; 24

000007ac <.Loc.7>:
    TIMSK3 |= (1 << TOIE3);
 7ac:	e1 e7       	ldi	r30, 0x71	; 113
 7ae:	f0 e0       	ldi	r31, 0x00	; 0
 7b0:	80 81       	ld	r24, Z

000007b2 <.Loc.8>:
 7b2:	81 60       	ori	r24, 0x01	; 1
 7b4:	80 83       	st	Z, r24

000007b6 <.Loc.9>:
}
 7b6:	08 95       	ret

000007b8 <__vector_35>:

ISR(TIMER3_OVF_vect) { // acknowledge module
 7b8:	8f 93       	push	r24
 7ba:	8f b7       	in	r24, 0x3f	; 63
 7bc:	8f 93       	push	r24
 7be:	8b b7       	in	r24, 0x3b	; 59
 7c0:	8f 93       	push	r24
 7c2:	ef 93       	push	r30
 7c4:	ff 93       	push	r31

000007c6 <.Loc.11>:
    ACK_MOD_PORT &= ~(1 << ACK_MOD);
 7c6:	a2 98       	cbi	0x14, 2	; 20

000007c8 <.Loc.13>:
    TIMSK3 &= ~(1 << TOIE3); // interrupt weer uitzetten
 7c8:	e1 e7       	ldi	r30, 0x71	; 113
 7ca:	f0 e0       	ldi	r31, 0x00	; 0
 7cc:	80 81       	ld	r24, Z
 7ce:	8e 7f       	andi	r24, 0xFE	; 254
 7d0:	80 83       	st	Z, r24

000007d2 <.Loc.15>:
}
 7d2:	ff 91       	pop	r31
 7d4:	ef 91       	pop	r30
 7d6:	8f 91       	pop	r24
 7d8:	8b bf       	out	0x3b, r24	; 59
 7da:	8f 91       	pop	r24
 7dc:	8f bf       	out	0x3f, r24	; 63
 7de:	8f 91       	pop	r24
 7e0:	18 95       	reti

000007e2 <rijden>:
ISR(INT0_vect) { //AGV heeft commando geacknowledged
    NEXT_MOD_PORT &= ~(1 << NEXT_MOD);
}*/

void rijden(void) {
    NEXT_MOD_PORT |= (1 << NEXT_MOD); // Volgende naar agv signaleren
 7e2:	a1 9a       	sbi	0x14, 1	; 20

000007e4 <.Loc.19>:
}
 7e4:	08 95       	ret

000007e6 <stoppen>:

void stoppen(void) {
    //NEXT_MOD_PORT |= (1 << NEXT_MOD);
}
 7e6:	08 95       	ret

000007e8 <led_blauw>:

void led_blauw(void) { //leeg
    TCNT1 = 0;
 7e8:	10 92 85 00 	sts	0x0085, r1	; 0x800085 <__TEXT_REGION_LENGTH__+0x700085>
 7ec:	10 92 84 00 	sts	0x0084, r1	; 0x800084 <__TEXT_REGION_LENGTH__+0x700084>

000007f0 <.Loc.25>:
    TIFR1 = (1 << TOV1); // flag verwijderen
 7f0:	81 e0       	ldi	r24, 0x01	; 1
 7f2:	86 bb       	out	0x16, r24	; 22

000007f4 <.Loc.27>:
    int klaar = 0;
    LED_BLAUW_PORT |= (1 << LED_BLAUW); // led aan
 7f4:	42 9a       	sbi	0x08, 2	; 8

000007f6 <.L6>:
    while (klaar == 0) {
        if ((TIFR1 & (1 << TOV1)) != 0) {
 7f6:	b0 9b       	sbis	0x16, 0	; 22
 7f8:	fe cf       	rjmp	.-4      	; 0x7f6 <.L6>

000007fa <.Loc.34>:
            LED_BLAUW_PORT &= ~(1 << LED_BLAUW); // led uit
 7fa:	42 98       	cbi	0x08, 2	; 8

000007fc <.Loc.36>:
            klaar = 1;
        }
    }
}
 7fc:	08 95       	ret

000007fe <led_groen>:

void led_groen(void) { // rfid
    TCNT1 = 0;
 7fe:	10 92 85 00 	sts	0x0085, r1	; 0x800085 <__TEXT_REGION_LENGTH__+0x700085>
 802:	10 92 84 00 	sts	0x0084, r1	; 0x800084 <__TEXT_REGION_LENGTH__+0x700084>

00000806 <.Loc.42>:
    TIFR1 = (1 << TOV1); // flag verwijderen
 806:	81 e0       	ldi	r24, 0x01	; 1
 808:	86 bb       	out	0x16, r24	; 22

0000080a <.Loc.44>:
    int klaar = 0;
    LED_GROEN_PORT |= (1 << LED_GROEN); // led aan
 80a:	43 9a       	sbi	0x08, 3	; 8

0000080c <.L10>:
    while (klaar == 0) {
        if ((TIFR1 & (1 << TOV1)) != 0) {
 80c:	b0 9b       	sbis	0x16, 0	; 22
 80e:	fe cf       	rjmp	.-4      	; 0x80c <.L10>

00000810 <.Loc.51>:
            LED_GROEN_PORT &= ~(1 << LED_GROEN); // led uit
 810:	43 98       	cbi	0x08, 3	; 8

00000812 <.Loc.53>:
            klaar = 1;
        }
    }
}
 812:	08 95       	ret

00000814 <sequence>:

void sequence(void) {
    RFID_opstarten();
 814:	0e 94 94 03 	call	0x728	; 0x728 <RFID_opstarten>

00000818 <.LVL4>:
    int teller_leeg = 0;
    int teller_rfid = 0;
    int rechts = 0;
    int links = 0;
    int testen = 0;
    rijden();
 818:	0e 94 f1 03 	call	0x7e2	; 0x7e2 <rijden>

0000081c <.LVL5>:
    LED_GROEN_PORT ^= (1 << LED_GROEN);
 81c:	88 b1       	in	r24, 0x08	; 8

0000081e <.Loc.65>:
 81e:	98 e0       	ldi	r25, 0x08	; 8
 820:	89 27       	eor	r24, r25
 822:	88 b9       	out	0x08, r24	; 8

00000824 <.Loc.66>:
    int links = 0;
 824:	a1 2c       	mov	r10, r1
 826:	b1 2c       	mov	r11, r1

00000828 <.Loc.67>:
    int rechts = 0;
 828:	00 e0       	ldi	r16, 0x00	; 0
 82a:	10 e0       	ldi	r17, 0x00	; 0

0000082c <.Loc.68>:
    int teller_rfid = 0;
 82c:	c1 2c       	mov	r12, r1
 82e:	d1 2c       	mov	r13, r1

00000830 <.Loc.69>:
    int teller_leeg = 0;
 830:	e1 2c       	mov	r14, r1
 832:	f1 2c       	mov	r15, r1

00000834 <.Loc.70>:

    while (1) { //((NEXT_AGV_PIN & (1 << NEXT_AGV)) == 0) { //detectiemodus // was ==0
        //_delay_ms(500);
        if (((IR_R_PIN & (1 << IR_R)) == 0) && (rechts == 0)) { // rechts doosje gedetecteerd
 834:	c9 e0       	ldi	r28, 0x09	; 9
 836:	d1 e0       	ldi	r29, 0x01	; 1

00000838 <.Loc.71>:
            //stoppen();
            rechts = 1;
 838:	88 24       	eor	r8, r8
 83a:	83 94       	inc	r8
 83c:	91 2c       	mov	r9, r1
 83e:	43 c0       	rjmp	.+134    	; 0x8c6 <.L14>

00000840 <.L22>:
            if (RFID_scannen(0) != 0) {// doosje bevat tag
 840:	80 e0       	ldi	r24, 0x00	; 0
 842:	90 e0       	ldi	r25, 0x00	; 0
 844:	0e 94 99 03 	call	0x732	; 0x732 <RFID_scannen>

00000848 <.LVL7>:
 848:	89 2b       	or	r24, r25
 84a:	61 f0       	breq	.+24     	; 0x864 <.L16>

0000084c <.Loc.76>:
                teller_rfid++;
 84c:	2f ef       	ldi	r18, 0xFF	; 255
 84e:	c2 1a       	sub	r12, r18
 850:	d2 0a       	sbc	r13, r18

00000852 <.Loc.78>:
                display(teller_leeg, teller_rfid);
 852:	b6 01       	movw	r22, r12
 854:	c7 01       	movw	r24, r14
 856:	0e 94 0b 01 	call	0x216	; 0x216 <display>

0000085a <.LVL9>:
                led_groen();
 85a:	0e 94 ff 03 	call	0x7fe	; 0x7fe <led_groen>

0000085e <.LVL10>:
            rechts = 1;
 85e:	08 2d       	mov	r16, r8
 860:	19 2d       	mov	r17, r9
 862:	38 c0       	rjmp	.+112    	; 0x8d4 <.L15>

00000864 <.L16>:
            }
            else { // doosje is leeg
                teller_leeg++;
 864:	8f ef       	ldi	r24, 0xFF	; 255
 866:	e8 1a       	sub	r14, r24
 868:	f8 0a       	sbc	r15, r24

0000086a <.Loc.83>:
                display(teller_leeg, teller_rfid);
 86a:	b6 01       	movw	r22, r12
 86c:	c7 01       	movw	r24, r14
 86e:	0e 94 0b 01 	call	0x216	; 0x216 <display>

00000872 <.LVL12>:
                led_blauw();
 872:	0e 94 f4 03 	call	0x7e8	; 0x7e8 <led_blauw>

00000876 <.LVL13>:
            rechts = 1;
 876:	08 2d       	mov	r16, r8
 878:	19 2d       	mov	r17, r9
 87a:	2c c0       	rjmp	.+88     	; 0x8d4 <.L15>

0000087c <.L23>:
            }
        }
        if (((IR_L_PIN & (1 << IR_L)) == 0)&& (links == 0)) { // links doosje gedetecteerd
            //stoppen();
            links = 1;
            if (RFID_scannen(1) != 0) { //doosje bevat tag
 87c:	88 2d       	mov	r24, r8
 87e:	99 2d       	mov	r25, r9
 880:	0e 94 99 03 	call	0x732	; 0x732 <RFID_scannen>

00000884 <.LVL15>:
 884:	89 2b       	or	r24, r25
 886:	61 f0       	breq	.+24     	; 0x8a0 <.L18>

00000888 <.Loc.90>:
                teller_rfid++;
 888:	9f ef       	ldi	r25, 0xFF	; 255
 88a:	c9 1a       	sub	r12, r25
 88c:	d9 0a       	sbc	r13, r25

0000088e <.Loc.92>:
                display(teller_leeg, teller_rfid);
 88e:	b6 01       	movw	r22, r12
 890:	c7 01       	movw	r24, r14
 892:	0e 94 0b 01 	call	0x216	; 0x216 <display>

00000896 <.LVL17>:
                led_groen();
 896:	0e 94 ff 03 	call	0x7fe	; 0x7fe <led_groen>

0000089a <.LVL18>:
            links = 1;
 89a:	a8 2c       	mov	r10, r8
 89c:	b9 2c       	mov	r11, r9
 89e:	20 c0       	rjmp	.+64     	; 0x8e0 <.L17>

000008a0 <.L18>:
            }
            else { // doosje is leeg
                teller_leeg++;
 8a0:	2f ef       	ldi	r18, 0xFF	; 255
 8a2:	e2 1a       	sub	r14, r18
 8a4:	f2 0a       	sbc	r15, r18

000008a6 <.Loc.97>:
                display(teller_leeg, teller_rfid);
 8a6:	b6 01       	movw	r22, r12
 8a8:	c7 01       	movw	r24, r14
 8aa:	0e 94 0b 01 	call	0x216	; 0x216 <display>

000008ae <.LVL20>:
                led_blauw();
 8ae:	0e 94 f4 03 	call	0x7e8	; 0x7e8 <led_blauw>

000008b2 <.LVL21>:
            links = 1;
 8b2:	a8 2c       	mov	r10, r8
 8b4:	b9 2c       	mov	r11, r9
 8b6:	14 c0       	rjmp	.+40     	; 0x8e0 <.L17>

000008b8 <.L19>:
        }
        if (((IR_R_PIN & (1 << IR_R)) != 0) && (rechts == 1)) { // rechts doosje niet meer gedetecteerd
            rechts = 0;
            _delay_ms(50); // debouncen
        }
        if (((IR_L_PIN & (1 << IR_L)) != 0) && (links == 1)) { // links doosje niet meer gedetecteerd
 8b8:	88 81       	ld	r24, Y

000008ba <.Loc.102>:
 8ba:	84 ff       	sbrs	r24, 4
 8bc:	04 c0       	rjmp	.+8      	; 0x8c6 <.L14>

000008be <.Loc.103>:
 8be:	81 e0       	ldi	r24, 0x01	; 1
 8c0:	a8 16       	cp	r10, r24
 8c2:	b1 04       	cpc	r11, r1
 8c4:	f9 f0       	breq	.+62     	; 0x904 <.L21>

000008c6 <.L14>:
        if (((IR_R_PIN & (1 << IR_R)) == 0) && (rechts == 0)) { // rechts doosje gedetecteerd
 8c6:	88 81       	ld	r24, Y

000008c8 <.Loc.107>:
 8c8:	85 fd       	sbrc	r24, 5
 8ca:	04 c0       	rjmp	.+8      	; 0x8d4 <.L15>

000008cc <.Loc.108>:
 8cc:	01 15       	cp	r16, r1
 8ce:	11 05       	cpc	r17, r1
 8d0:	09 f4       	brne	.+2      	; 0x8d4 <.L15>

000008d2 <L0^A>:
 8d2:	b6 cf       	rjmp	.-148    	; 0x840 <.L22>

000008d4 <.L15>:
        if (((IR_L_PIN & (1 << IR_L)) == 0)&& (links == 0)) { // links doosje gedetecteerd
 8d4:	88 81       	ld	r24, Y

000008d6 <.Loc.111>:
 8d6:	84 fd       	sbrc	r24, 4
 8d8:	03 c0       	rjmp	.+6      	; 0x8e0 <.L17>

000008da <.Loc.112>:
 8da:	a1 14       	cp	r10, r1
 8dc:	b1 04       	cpc	r11, r1
 8de:	71 f2       	breq	.-100    	; 0x87c <.L23>

000008e0 <.L17>:
        if (((IR_R_PIN & (1 << IR_R)) != 0) && (rechts == 1)) { // rechts doosje niet meer gedetecteerd
 8e0:	88 81       	ld	r24, Y

000008e2 <.Loc.115>:
 8e2:	85 ff       	sbrs	r24, 5
 8e4:	e9 cf       	rjmp	.-46     	; 0x8b8 <.L19>

000008e6 <.Loc.116>:
 8e6:	01 30       	cpi	r16, 0x01	; 1
 8e8:	11 05       	cpc	r17, r1
 8ea:	31 f7       	brne	.-52     	; 0x8b8 <.L19>

000008ec <.LBI6>:
 8ec:	8f ef       	ldi	r24, 0xFF	; 255
 8ee:	90 e7       	ldi	r25, 0x70	; 112
 8f0:	22 e0       	ldi	r18, 0x02	; 2

000008f2 <.L1^B1>:
 8f2:	81 50       	subi	r24, 0x01	; 1
 8f4:	90 40       	sbci	r25, 0x00	; 0
 8f6:	20 40       	sbci	r18, 0x00	; 0
 8f8:	e1 f7       	brne	.-8      	; 0x8f2 <.L1^B1>
 8fa:	00 c0       	rjmp	.+0      	; 0x8fc <L0^A>

000008fc <L0^A>:
	...

000008fe <.Loc.126>:
            rechts = 0;
 8fe:	00 e0       	ldi	r16, 0x00	; 0
 900:	10 e0       	ldi	r17, 0x00	; 0

00000902 <.Loc.127>:
}
 902:	da cf       	rjmp	.-76     	; 0x8b8 <.L19>

00000904 <.L21>:
	__builtin_avr_delay_cycles(__ticks_dc);
 904:	9f ef       	ldi	r25, 0xFF	; 255
 906:	20 e7       	ldi	r18, 0x70	; 112
 908:	82 e0       	ldi	r24, 0x02	; 2

0000090a <.L1^B2>:
 90a:	91 50       	subi	r25, 0x01	; 1
 90c:	20 40       	sbci	r18, 0x00	; 0
 90e:	80 40       	sbci	r24, 0x00	; 0
 910:	e1 f7       	brne	.-8      	; 0x90a <.L1^B2>
 912:	00 c0       	rjmp	.+0      	; 0x914 <L0^A>

00000914 <L0^A>:
	...

00000916 <.Loc.138>:
            links = 0;
 916:	a1 2c       	mov	r10, r1
 918:	b1 2c       	mov	r11, r1

0000091a <.Loc.139>:
}
 91a:	d5 cf       	rjmp	.-86     	; 0x8c6 <.L14>

0000091c <init_test>:

}*/

void init_test(void){

    DDRB |= (1 << PB7);
 91c:	27 9a       	sbi	0x04, 7	; 4

0000091e <.Loc.3>:
    DDRB |= (1 << PB6);
 91e:	26 9a       	sbi	0x04, 6	; 4

00000920 <.Loc.5>:

    PORTB |= (1 << PB7); // uit
 920:	2f 9a       	sbi	0x05, 7	; 5

00000922 <.Loc.7>:
    PORTB |= (1 << PB6); // uit
 922:	2e 9a       	sbi	0x05, 6	; 5

00000924 <.Loc.10>:

//    DDRB |= (1 << PB5);
//    DDRB |= (1 << PB4);

    DDRF &= ~(1 << PF1);
 924:	81 98       	cbi	0x10, 1	; 16

00000926 <.Loc.11>:
    DDRF &= ~(1 << PF2);
 926:	82 98       	cbi	0x10, 2	; 16

00000928 <.Loc.13>:
    DDRF &= ~(1 << PF3);
 928:	83 98       	cbi	0x10, 3	; 16

0000092a <.Loc.15>:
}
 92a:	08 95       	ret

0000092c <test_module_versturen>:

void test_module_versturen(void){ //module
    int released = 1;
    if (((PINF & (1 << PF1)) == 0) && (released == 1)) {
 92c:	79 9b       	sbis	0x0f, 1	; 15

0000092e <.Loc.20>:
        NEXT_MOD_PORT |= (1 << NEXT_MOD);
 92e:	a1 9a       	sbi	0x14, 1	; 20

00000930 <.Loc.22>:
        released = 0;
        ////_delay_ms(1000);
        //NEXT_MOD_PORT &= ~(1 << NEXT_MOD);
    }
}
 930:	08 95       	ret

00000932 <test_AGV_ontvang>:


void test_AGV_ontvang(void){ //agv
    static int test = 1;
    if ((NEXT_AGV_PIN & (1 << NEXT_AGV)) != 0 && test == 1){ //input vanuit module
 932:	30 9b       	sbis	0x06, 0	; 6
 934:	06 c0       	rjmp	.+12     	; 0x942 <.L5>

00000936 <.Loc.28>:
 936:	80 91 00 02 	lds	r24, 0x0200	; 0x800200 <test.0>
 93a:	90 91 01 02 	lds	r25, 0x0201	; 0x800201 <test.0+0x1>
 93e:	01 97       	sbiw	r24, 0x01	; 1
 940:	81 f0       	breq	.+32     	; 0x962 <.L7>

00000942 <.L5>:
        acknowledge_module();

        //ACK_AGV_PORT |= (1 << ACK_AGV);
        test = 0;
    }
    else if((NEXT_AGV_PIN & (1 << NEXT_AGV)) == 0 && test == 0){
 942:	30 99       	sbic	0x06, 0	; 6
 944:	0d c0       	rjmp	.+26     	; 0x960 <.L4>

00000946 <.Loc.31>:
 946:	80 91 00 02 	lds	r24, 0x0200	; 0x800200 <test.0>
 94a:	90 91 01 02 	lds	r25, 0x0201	; 0x800201 <test.0+0x1>
 94e:	89 2b       	or	r24, r25
 950:	39 f4       	brne	.+14     	; 0x960 <.L4>

00000952 <.Loc.32>:
        PORTB |= (1 << PB7);
 952:	2f 9a       	sbi	0x05, 7	; 5

00000954 <.Loc.34>:
        test = 1;
 954:	81 e0       	ldi	r24, 0x01	; 1
 956:	90 e0       	ldi	r25, 0x00	; 0
 958:	90 93 01 02 	sts	0x0201, r25	; 0x800201 <test.0+0x1>
 95c:	80 93 00 02 	sts	0x0200, r24	; 0x800200 <test.0>

00000960 <.L4>:
    }
}
 960:	08 95       	ret

00000962 <.L7>:
        PORTB &= ~(1 << PB7);
 962:	2f 98       	cbi	0x05, 7	; 5

00000964 <.LBB14>:
	__builtin_avr_delay_cycles(__ticks_dc);
 964:	2f ef       	ldi	r18, 0xFF	; 255
 966:	83 ed       	ldi	r24, 0xD3	; 211
 968:	90 e3       	ldi	r25, 0x30	; 48

0000096a <.L1^B1>:
 96a:	21 50       	subi	r18, 0x01	; 1
 96c:	80 40       	sbci	r24, 0x00	; 0
 96e:	90 40       	sbci	r25, 0x00	; 0
 970:	e1 f7       	brne	.-8      	; 0x96a <.L1^B1>
 972:	00 c0       	rjmp	.+0      	; 0x974 <L0^A>

00000974 <L0^A>:
	...

00000976 <.LBE14>:
        acknowledge_module();
 976:	0e 94 cf 03 	call	0x79e	; 0x79e <acknowledge_module>

0000097a <.LVL4>:
        test = 0;
 97a:	10 92 01 02 	sts	0x0201, r1	; 0x800201 <test.0+0x1>
 97e:	10 92 00 02 	sts	0x0200, r1	; 0x800200 <test.0>
 982:	08 95       	ret

00000984 <IRblauwtesten>:




void IRblauwtesten (void) {
    SIGNALIR_DDR &= ~(1 << SIGNALIR);
 984:	ea e0       	ldi	r30, 0x0A	; 10
 986:	f1 e0       	ldi	r31, 0x01	; 1
 988:	80 81       	ld	r24, Z
 98a:	8f 7e       	andi	r24, 0xEF	; 239
 98c:	80 83       	st	Z, r24

0000098e <.Loc.54>:
    while(1) {
        if ((SIGNALIR_PIN & (1 << SIGNALIR))==0) {
 98e:	e9 e0       	ldi	r30, 0x09	; 9
 990:	f1 e0       	ldi	r31, 0x01	; 1
 992:	01 c0       	rjmp	.+2      	; 0x996 <.L9>

00000994 <.L12>:
            PORTC |= (1 << PC3);
 994:	43 9a       	sbi	0x08, 3	; 8

00000996 <.L9>:
        if ((SIGNALIR_PIN & (1 << SIGNALIR))==0) {
 996:	80 81       	ld	r24, Z

00000998 <.Loc.60>:
 998:	84 ff       	sbrs	r24, 4
 99a:	fc cf       	rjmp	.-8      	; 0x994 <.L12>

0000099c <.Loc.61>:
        }
        else {
            PORTC &= ~(1 << PC3);
 99c:	43 98       	cbi	0x08, 3	; 8
 99e:	fb cf       	rjmp	.-10     	; 0x996 <.L9>

000009a0 <IRsensortesten>:
    }
}

void IRsensortesten (void) {
    int teller = 0;
    SIGNALIR_DDR &= ~(1 << SIGNALIR);
 9a0:	ea e0       	ldi	r30, 0x0A	; 10
 9a2:	f1 e0       	ldi	r31, 0x01	; 1
 9a4:	80 81       	ld	r24, Z
 9a6:	8f 7e       	andi	r24, 0xEF	; 239
 9a8:	80 83       	st	Z, r24

000009aa <.Loc.67>:
    ENABLEIR_DDR |= (1 << ENABLEIR);
 9aa:	e1 e0       	ldi	r30, 0x01	; 1
 9ac:	f1 e0       	ldi	r31, 0x01	; 1
 9ae:	80 81       	ld	r24, Z

000009b0 <.Loc.68>:
 9b0:	88 60       	ori	r24, 0x08	; 8
 9b2:	80 83       	st	Z, r24

000009b4 <.Loc.69>:
    ENABLEIR_PORT &= ~(1 << ENABLEIR);
 9b4:	e2 e0       	ldi	r30, 0x02	; 2
 9b6:	f1 e0       	ldi	r31, 0x01	; 1
 9b8:	80 81       	ld	r24, Z
 9ba:	87 7f       	andi	r24, 0xF7	; 247
 9bc:	80 83       	st	Z, r24

000009be <.Loc.71>:
    int teller = 0;
 9be:	00 e0       	ldi	r16, 0x00	; 0
 9c0:	10 e0       	ldi	r17, 0x00	; 0

000009c2 <.Loc.72>:

    while (1) {
        ENABLEIR_PORT |= (1 << ENABLEIR);
 9c2:	c2 e0       	ldi	r28, 0x02	; 2
 9c4:	d1 e0       	ldi	r29, 0x01	; 1

000009c6 <.Loc.73>:
        _delay_us(210);
        if ((SIGNALIR_PIN & (1 << SIGNALIR)) != 0) {
 9c6:	0f 2e       	mov	r0, r31
 9c8:	f9 e0       	ldi	r31, 0x09	; 9
 9ca:	ef 2e       	mov	r14, r31
 9cc:	ff 24       	eor	r15, r15
 9ce:	f3 94       	inc	r15
 9d0:	f0 2d       	mov	r31, r0
 9d2:	17 c0       	rjmp	.+46     	; 0xa02 <.L17>

000009d4 <.L14>:
	__builtin_avr_delay_cycles(__ticks_dc);
 9d4:	8b e2       	ldi	r24, 0x2B	; 43
 9d6:	96 e0       	ldi	r25, 0x06	; 6

000009d8 <.L1^B2>:
 9d8:	01 97       	sbiw	r24, 0x01	; 1
 9da:	f1 f7       	brne	.-4      	; 0x9d8 <.L1^B2>
 9dc:	00 c0       	rjmp	.+0      	; 0x9de <L0^A>

000009de <L0^A>:
	...

000009e0 <.LBE16>:
            PORTC &= ~(1 << PC3);
        }
        else {
            _delay_us(395);
            if ((SIGNALIR_PIN & (1 << SIGNALIR)) != 0) {
 9e0:	80 81       	ld	r24, Z

000009e2 <.Loc.85>:
 9e2:	84 ff       	sbrs	r24, 4
 9e4:	1d c0       	rjmp	.+58     	; 0xa20 <.L16>

000009e6 <.Loc.86>:
                PORTC &= ~(1 << PC3);
 9e6:	43 98       	cbi	0x08, 3	; 8

000009e8 <.L15>:
            else {
                teller++;
                PORTC |= (1 << PC3);
            }
        }
        ENABLEIR_PORT &= ~(1 << ENABLEIR);
 9e8:	88 81       	ld	r24, Y
 9ea:	87 7f       	andi	r24, 0xF7	; 247
 9ec:	88 83       	st	Y, r24

000009ee <.LBB18>:
 9ee:	8f ea       	ldi	r24, 0xAF	; 175
 9f0:	94 e0       	ldi	r25, 0x04	; 4

000009f2 <.L1^B3>:
 9f2:	01 97       	sbiw	r24, 0x01	; 1
 9f4:	f1 f7       	brne	.-4      	; 0x9f2 <.L1^B3>
 9f6:	00 c0       	rjmp	.+0      	; 0x9f8 <L0^A>

000009f8 <L0^A>:
	...

000009fa <.LBE18>:
        _delay_us(300);
        display(teller, teller);
 9fa:	b8 01       	movw	r22, r16
 9fc:	c8 01       	movw	r24, r16
 9fe:	0e 94 0b 01 	call	0x216	; 0x216 <display>

00000a02 <.L17>:
        ENABLEIR_PORT |= (1 << ENABLEIR);
 a02:	88 81       	ld	r24, Y

00000a04 <.Loc.103>:
 a04:	88 60       	ori	r24, 0x08	; 8
 a06:	88 83       	st	Y, r24

00000a08 <.LBB20>:
 a08:	87 e4       	ldi	r24, 0x47	; 71
 a0a:	93 e0       	ldi	r25, 0x03	; 3

00000a0c <.L1^B4>:
 a0c:	01 97       	sbiw	r24, 0x01	; 1
 a0e:	f1 f7       	brne	.-4      	; 0xa0c <.L1^B4>
 a10:	00 c0       	rjmp	.+0      	; 0xa12 <L0^A>

00000a12 <L0^A>:
	...

00000a14 <.LBE20>:
        if ((SIGNALIR_PIN & (1 << SIGNALIR)) != 0) {
 a14:	f7 01       	movw	r30, r14
 a16:	80 81       	ld	r24, Z

00000a18 <.Loc.115>:
 a18:	84 ff       	sbrs	r24, 4
 a1a:	dc cf       	rjmp	.-72     	; 0x9d4 <.L14>

00000a1c <.Loc.116>:
            PORTC &= ~(1 << PC3);
 a1c:	43 98       	cbi	0x08, 3	; 8
 a1e:	e4 cf       	rjmp	.-56     	; 0x9e8 <.L15>

00000a20 <.L16>:
                teller++;
 a20:	0f 5f       	subi	r16, 0xFF	; 255
 a22:	1f 4f       	sbci	r17, 0xFF	; 255

00000a24 <.Loc.120>:
                PORTC |= (1 << PC3);
 a24:	43 9a       	sbi	0x08, 3	; 8
 a26:	e0 cf       	rjmp	.-64     	; 0x9e8 <.L15>

00000a28 <testen>:
    }*/


    int teller_leeg = 0;
    int teller_rfid = 0;
    RFID_opstarten();
 a28:	0e 94 94 03 	call	0x728	; 0x728 <RFID_opstarten>

00000a2c <.LVL15>:
    //int tagrechts = 0;
    //int taglinks = 0;
    int rechts = 0;
    int links = 0;
 a2c:	a1 2c       	mov	r10, r1
 a2e:	b1 2c       	mov	r11, r1

00000a30 <.Loc.129>:
    int rechts = 0;
 a30:	00 e0       	ldi	r16, 0x00	; 0
 a32:	10 e0       	ldi	r17, 0x00	; 0

00000a34 <.Loc.130>:
    int teller_rfid = 0;
 a34:	c1 2c       	mov	r12, r1
 a36:	d1 2c       	mov	r13, r1

00000a38 <.Loc.131>:
    int teller_leeg = 0;
 a38:	e1 2c       	mov	r14, r1
 a3a:	f1 2c       	mov	r15, r1

00000a3c <.Loc.132>:


    while (1) { //detectiemodus
        if (((IR_R_PIN & (1 << IR_R)) == 0) && (rechts == 0)) { // rechts doosje gedetecteerd
 a3c:	c9 e0       	ldi	r28, 0x09	; 9
 a3e:	d1 e0       	ldi	r29, 0x01	; 1

00000a40 <.Loc.133>:
            stoppen();
            rechts = 1;
 a40:	88 24       	eor	r8, r8
 a42:	83 94       	inc	r8
 a44:	91 2c       	mov	r9, r1
 a46:	47 c0       	rjmp	.+142    	; 0xad6 <.L19>

00000a48 <.L27>:
            stoppen();
 a48:	0e 94 f3 03 	call	0x7e6	; 0x7e6 <stoppen>

00000a4c <.LVL17>:
            if (RFID_scannen(0) != 0) {// doosje bevat tag
 a4c:	80 e0       	ldi	r24, 0x00	; 0
 a4e:	90 e0       	ldi	r25, 0x00	; 0
 a50:	0e 94 99 03 	call	0x732	; 0x732 <RFID_scannen>

00000a54 <.LVL18>:
 a54:	89 2b       	or	r24, r25
 a56:	61 f0       	breq	.+24     	; 0xa70 <.L21>

00000a58 <.Loc.139>:
                teller_rfid++;
 a58:	2f ef       	ldi	r18, 0xFF	; 255
 a5a:	c2 1a       	sub	r12, r18
 a5c:	d2 0a       	sbc	r13, r18

00000a5e <.Loc.141>:
                display(teller_leeg, teller_rfid);
 a5e:	b6 01       	movw	r22, r12
 a60:	c7 01       	movw	r24, r14
 a62:	0e 94 0b 01 	call	0x216	; 0x216 <display>

00000a66 <.LVL20>:
                led_groen();
 a66:	0e 94 ff 03 	call	0x7fe	; 0x7fe <led_groen>

00000a6a <.LVL21>:
            rechts = 1;
 a6a:	08 2d       	mov	r16, r8
 a6c:	19 2d       	mov	r17, r9
 a6e:	3a c0       	rjmp	.+116    	; 0xae4 <.L20>

00000a70 <.L21>:
            }
            else { // doosje is leeg
                teller_leeg++;
 a70:	8f ef       	ldi	r24, 0xFF	; 255
 a72:	e8 1a       	sub	r14, r24
 a74:	f8 0a       	sbc	r15, r24

00000a76 <.Loc.146>:
                display(teller_leeg, teller_rfid);
 a76:	b6 01       	movw	r22, r12
 a78:	c7 01       	movw	r24, r14
 a7a:	0e 94 0b 01 	call	0x216	; 0x216 <display>

00000a7e <.LVL23>:
                led_blauw();
 a7e:	0e 94 f4 03 	call	0x7e8	; 0x7e8 <led_blauw>

00000a82 <.LVL24>:
            rechts = 1;
 a82:	08 2d       	mov	r16, r8
 a84:	19 2d       	mov	r17, r9
 a86:	2e c0       	rjmp	.+92     	; 0xae4 <.L20>

00000a88 <.L28>:
            }
        }
        if (((IR_L_PIN & (1 << IR_L)) == 0)&& (links == 0)) { // links doosje gedetecteerd
            stoppen();
 a88:	0e 94 f3 03 	call	0x7e6	; 0x7e6 <stoppen>

00000a8c <.LVL26>:
            links = 1;
            if (RFID_scannen(1) != 0) { //doosje bevat tag
 a8c:	88 2d       	mov	r24, r8
 a8e:	99 2d       	mov	r25, r9
 a90:	0e 94 99 03 	call	0x732	; 0x732 <RFID_scannen>

00000a94 <.LVL27>:
 a94:	89 2b       	or	r24, r25
 a96:	61 f0       	breq	.+24     	; 0xab0 <.L23>

00000a98 <.Loc.154>:
                teller_rfid++;
 a98:	9f ef       	ldi	r25, 0xFF	; 255
 a9a:	c9 1a       	sub	r12, r25
 a9c:	d9 0a       	sbc	r13, r25

00000a9e <.Loc.156>:
                display(teller_leeg, teller_rfid);
 a9e:	b6 01       	movw	r22, r12
 aa0:	c7 01       	movw	r24, r14
 aa2:	0e 94 0b 01 	call	0x216	; 0x216 <display>

00000aa6 <.LVL29>:
                led_groen();
 aa6:	0e 94 ff 03 	call	0x7fe	; 0x7fe <led_groen>

00000aaa <.LVL30>:
            links = 1;
 aaa:	a8 2c       	mov	r10, r8
 aac:	b9 2c       	mov	r11, r9
 aae:	20 c0       	rjmp	.+64     	; 0xaf0 <.L22>

00000ab0 <.L23>:
            }
            else { // doosje is leeg
                teller_leeg++;
 ab0:	2f ef       	ldi	r18, 0xFF	; 255
 ab2:	e2 1a       	sub	r14, r18
 ab4:	f2 0a       	sbc	r15, r18

00000ab6 <.Loc.161>:
                display(teller_leeg, teller_rfid);
 ab6:	b6 01       	movw	r22, r12
 ab8:	c7 01       	movw	r24, r14
 aba:	0e 94 0b 01 	call	0x216	; 0x216 <display>

00000abe <.LVL32>:
                led_blauw();
 abe:	0e 94 f4 03 	call	0x7e8	; 0x7e8 <led_blauw>

00000ac2 <.LVL33>:
            links = 1;
 ac2:	a8 2c       	mov	r10, r8
 ac4:	b9 2c       	mov	r11, r9
 ac6:	14 c0       	rjmp	.+40     	; 0xaf0 <.L22>

00000ac8 <.L24>:
        }
        if (((IR_R_PIN & (1 << IR_R)) != 0) && (rechts == 1)) { // rechts doosje niet meer gedetecteerd
            rechts = 0;
            _delay_ms(50); // debouncen
        }
        if (((IR_L_PIN & (1 << IR_L)) != 0) && (links == 1)) { // links doosje niet meer gedetecteerd
 ac8:	88 81       	ld	r24, Y

00000aca <.Loc.166>:
 aca:	84 ff       	sbrs	r24, 4
 acc:	04 c0       	rjmp	.+8      	; 0xad6 <.L19>

00000ace <.Loc.167>:
 ace:	81 e0       	ldi	r24, 0x01	; 1
 ad0:	a8 16       	cp	r10, r24
 ad2:	b1 04       	cpc	r11, r1
 ad4:	f9 f0       	breq	.+62     	; 0xb14 <.L26>

00000ad6 <.L19>:
        if (((IR_R_PIN & (1 << IR_R)) == 0) && (rechts == 0)) { // rechts doosje gedetecteerd
 ad6:	88 81       	ld	r24, Y

00000ad8 <.Loc.171>:
 ad8:	85 fd       	sbrc	r24, 5
 ada:	04 c0       	rjmp	.+8      	; 0xae4 <.L20>

00000adc <.Loc.172>:
 adc:	01 15       	cp	r16, r1
 ade:	11 05       	cpc	r17, r1
 ae0:	09 f4       	brne	.+2      	; 0xae4 <.L20>

00000ae2 <L0^A>:
 ae2:	b2 cf       	rjmp	.-156    	; 0xa48 <.L27>

00000ae4 <.L20>:
        if (((IR_L_PIN & (1 << IR_L)) == 0)&& (links == 0)) { // links doosje gedetecteerd
 ae4:	88 81       	ld	r24, Y

00000ae6 <.Loc.175>:
 ae6:	84 fd       	sbrc	r24, 4
 ae8:	03 c0       	rjmp	.+6      	; 0xaf0 <.L22>

00000aea <.Loc.176>:
 aea:	a1 14       	cp	r10, r1
 aec:	b1 04       	cpc	r11, r1
 aee:	61 f2       	breq	.-104    	; 0xa88 <.L28>

00000af0 <.L22>:
        if (((IR_R_PIN & (1 << IR_R)) != 0) && (rechts == 1)) { // rechts doosje niet meer gedetecteerd
 af0:	88 81       	ld	r24, Y

00000af2 <.Loc.179>:
 af2:	85 ff       	sbrs	r24, 5
 af4:	e9 cf       	rjmp	.-46     	; 0xac8 <.L24>

00000af6 <.Loc.180>:
 af6:	01 30       	cpi	r16, 0x01	; 1
 af8:	11 05       	cpc	r17, r1
 afa:	31 f7       	brne	.-52     	; 0xac8 <.L24>

00000afc <.LBI22>:
	__builtin_avr_delay_cycles(__ticks_dc);
 afc:	8f ef       	ldi	r24, 0xFF	; 255
 afe:	90 e7       	ldi	r25, 0x70	; 112
 b00:	22 e0       	ldi	r18, 0x02	; 2

00000b02 <.L1^B5>:
 b02:	81 50       	subi	r24, 0x01	; 1
 b04:	90 40       	sbci	r25, 0x00	; 0
 b06:	20 40       	sbci	r18, 0x00	; 0
 b08:	e1 f7       	brne	.-8      	; 0xb02 <.L1^B5>
 b0a:	00 c0       	rjmp	.+0      	; 0xb0c <L0^A>

00000b0c <L0^A>:
	...

00000b0e <.Loc.190>:
            rechts = 0;
 b0e:	00 e0       	ldi	r16, 0x00	; 0
 b10:	10 e0       	ldi	r17, 0x00	; 0

00000b12 <.Loc.191>:
}
 b12:	da cf       	rjmp	.-76     	; 0xac8 <.L24>

00000b14 <.L26>:
	__builtin_avr_delay_cycles(__ticks_dc);
 b14:	9f ef       	ldi	r25, 0xFF	; 255
 b16:	20 e7       	ldi	r18, 0x70	; 112
 b18:	82 e0       	ldi	r24, 0x02	; 2

00000b1a <.L1^B6>:
 b1a:	91 50       	subi	r25, 0x01	; 1
 b1c:	20 40       	sbci	r18, 0x00	; 0
 b1e:	80 40       	sbci	r24, 0x00	; 0
 b20:	e1 f7       	brne	.-8      	; 0xb1a <.L1^B6>
 b22:	00 c0       	rjmp	.+0      	; 0xb24 <L0^A>

00000b24 <L0^A>:
	...

00000b26 <.Loc.202>:
            links = 0;
 b26:	a1 2c       	mov	r10, r1
 b28:	b1 2c       	mov	r11, r1

00000b2a <.Loc.203>:
}
 b2a:	d5 cf       	rjmp	.-86     	; 0xad6 <.L19>

00000b2c <__umulhisi3>:
 b2c:	a2 9f       	mul	r26, r18

00000b2e <.Loc.1>:
 b2e:	b0 01       	movw	r22, r0

00000b30 <.Loc.2>:
 b30:	b3 9f       	mul	r27, r19

00000b32 <.Loc.3>:
 b32:	c0 01       	movw	r24, r0

00000b34 <.Loc.4>:
 b34:	a3 9f       	mul	r26, r19

00000b36 <.Loc.5>:
 b36:	70 0d       	add	r23, r0

00000b38 <.Loc.6>:
 b38:	81 1d       	adc	r24, r1

00000b3a <.Loc.7>:
 b3a:	11 24       	eor	r1, r1

00000b3c <.Loc.8>:
 b3c:	91 1d       	adc	r25, r1

00000b3e <.Loc.9>:
 b3e:	b2 9f       	mul	r27, r18

00000b40 <.Loc.10>:
 b40:	70 0d       	add	r23, r0

00000b42 <.Loc.11>:
 b42:	81 1d       	adc	r24, r1

00000b44 <.Loc.12>:
 b44:	11 24       	eor	r1, r1

00000b46 <.Loc.13>:
 b46:	91 1d       	adc	r25, r1

00000b48 <.Loc.14>:
 b48:	08 95       	ret

00000b4a <_exit>:
 b4a:	f8 94       	cli

00000b4c <__stop_program>:
 b4c:	ff cf       	rjmp	.-2      	; 0xb4c <__stop_program>
