
bin\Debug\RFID_module_AGV.elf:     file format elf32-avr

Sections:
Idx Name          Size      VMA       LMA       File off  Algn
  0 .data         0000000a  00800200  0000064c  000006e0  2**0
                  CONTENTS, ALLOC, LOAD, DATA
  1 .text         0000064c  00000000  00000000  00000094  2**1
                  CONTENTS, ALLOC, LOAD, READONLY, CODE
  2 .fuse         00000003  00820000  00820000  000006ea  2**0
                  CONTENTS, ALLOC, LOAD, DATA
  3 .comment      00000012  00000000  00000000  000006ed  2**0
                  CONTENTS, READONLY
  4 .note.gnu.avr.deviceinfo 00000040  00000000  00000000  00000700  2**2
                  CONTENTS, READONLY, OCTETS
  5 .debug_aranges 000000f0  00000000  00000000  00000740  2**3
                  CONTENTS, READONLY, DEBUGGING, OCTETS
  6 .debug_info   00001bab  00000000  00000000  00000830  2**0
                  CONTENTS, READONLY, DEBUGGING, OCTETS
  7 .debug_abbrev 000010d9  00000000  00000000  000023db  2**0
                  CONTENTS, READONLY, DEBUGGING, OCTETS
  8 .debug_line   00001408  00000000  00000000  000034b4  2**0
                  CONTENTS, READONLY, DEBUGGING, OCTETS
  9 .debug_frame  00000230  00000000  00000000  000048bc  2**2
                  CONTENTS, READONLY, DEBUGGING, OCTETS
 10 .debug_str    000006f3  00000000  00000000  00004aec  2**0
                  CONTENTS, READONLY, DEBUGGING, OCTETS
 11 .debug_line_str 000001dd  00000000  00000000  000051df  2**0
                  CONTENTS, READONLY, DEBUGGING, OCTETS
 12 .debug_loclists 000004ca  00000000  00000000  000053bc  2**0
                  CONTENTS, READONLY, DEBUGGING, OCTETS
 13 .debug_rnglists 00000017  00000000  00000000  00005886  2**0
                  CONTENTS, READONLY, DEBUGGING, OCTETS

Disassembly of section .text:

00000000 <__vectors>:
   0:	0c 94 72 00 	jmp	0xe4	; 0xe4 <__ctors_end>
   4:	0c 94 0c 03 	jmp	0x618	; 0x618 <__vector_1>
   8:	0c 94 8b 00 	jmp	0x116	; 0x116 <__bad_interrupt>
   c:	0c 94 8b 00 	jmp	0x116	; 0x116 <__bad_interrupt>
  10:	0c 94 8b 00 	jmp	0x116	; 0x116 <__bad_interrupt>
  14:	0c 94 8b 00 	jmp	0x116	; 0x116 <__bad_interrupt>
  18:	0c 94 8b 00 	jmp	0x116	; 0x116 <__bad_interrupt>
  1c:	0c 94 8b 00 	jmp	0x116	; 0x116 <__bad_interrupt>
  20:	0c 94 8b 00 	jmp	0x116	; 0x116 <__bad_interrupt>
  24:	0c 94 8b 00 	jmp	0x116	; 0x116 <__bad_interrupt>
  28:	0c 94 8b 00 	jmp	0x116	; 0x116 <__bad_interrupt>
  2c:	0c 94 8b 00 	jmp	0x116	; 0x116 <__bad_interrupt>
  30:	0c 94 8b 00 	jmp	0x116	; 0x116 <__bad_interrupt>
  34:	0c 94 8b 00 	jmp	0x116	; 0x116 <__bad_interrupt>
  38:	0c 94 8b 00 	jmp	0x116	; 0x116 <__bad_interrupt>
  3c:	0c 94 8b 00 	jmp	0x116	; 0x116 <__bad_interrupt>
  40:	0c 94 8b 00 	jmp	0x116	; 0x116 <__bad_interrupt>
  44:	0c 94 8b 00 	jmp	0x116	; 0x116 <__bad_interrupt>
  48:	0c 94 8b 00 	jmp	0x116	; 0x116 <__bad_interrupt>
  4c:	0c 94 8b 00 	jmp	0x116	; 0x116 <__bad_interrupt>
  50:	0c 94 8b 00 	jmp	0x116	; 0x116 <__bad_interrupt>
  54:	0c 94 8b 00 	jmp	0x116	; 0x116 <__bad_interrupt>
  58:	0c 94 8b 00 	jmp	0x116	; 0x116 <__bad_interrupt>
  5c:	0c 94 8b 00 	jmp	0x116	; 0x116 <__bad_interrupt>
  60:	0c 94 8b 00 	jmp	0x116	; 0x116 <__bad_interrupt>
  64:	0c 94 8b 00 	jmp	0x116	; 0x116 <__bad_interrupt>
  68:	0c 94 8b 00 	jmp	0x116	; 0x116 <__bad_interrupt>
  6c:	0c 94 8b 00 	jmp	0x116	; 0x116 <__bad_interrupt>
  70:	0c 94 8b 00 	jmp	0x116	; 0x116 <__bad_interrupt>
  74:	0c 94 8b 00 	jmp	0x116	; 0x116 <__bad_interrupt>
  78:	0c 94 8b 00 	jmp	0x116	; 0x116 <__bad_interrupt>
  7c:	0c 94 8b 00 	jmp	0x116	; 0x116 <__bad_interrupt>
  80:	0c 94 8b 00 	jmp	0x116	; 0x116 <__bad_interrupt>
  84:	0c 94 8b 00 	jmp	0x116	; 0x116 <__bad_interrupt>
  88:	0c 94 8b 00 	jmp	0x116	; 0x116 <__bad_interrupt>
  8c:	0c 94 8b 00 	jmp	0x116	; 0x116 <__bad_interrupt>
  90:	0c 94 8b 00 	jmp	0x116	; 0x116 <__bad_interrupt>
  94:	0c 94 8b 00 	jmp	0x116	; 0x116 <__bad_interrupt>
  98:	0c 94 8b 00 	jmp	0x116	; 0x116 <__bad_interrupt>
  9c:	0c 94 8b 00 	jmp	0x116	; 0x116 <__bad_interrupt>
  a0:	0c 94 8b 00 	jmp	0x116	; 0x116 <__bad_interrupt>
  a4:	0c 94 8b 00 	jmp	0x116	; 0x116 <__bad_interrupt>
  a8:	0c 94 8b 00 	jmp	0x116	; 0x116 <__bad_interrupt>
  ac:	0c 94 8b 00 	jmp	0x116	; 0x116 <__bad_interrupt>
  b0:	0c 94 8b 00 	jmp	0x116	; 0x116 <__bad_interrupt>
  b4:	0c 94 8b 00 	jmp	0x116	; 0x116 <__bad_interrupt>
  b8:	0c 94 8b 00 	jmp	0x116	; 0x116 <__bad_interrupt>
  bc:	0c 94 8b 00 	jmp	0x116	; 0x116 <__bad_interrupt>
  c0:	0c 94 8b 00 	jmp	0x116	; 0x116 <__bad_interrupt>
  c4:	0c 94 8b 00 	jmp	0x116	; 0x116 <__bad_interrupt>
  c8:	0c 94 8b 00 	jmp	0x116	; 0x116 <__bad_interrupt>
  cc:	0c 94 8b 00 	jmp	0x116	; 0x116 <__bad_interrupt>
  d0:	0c 94 8b 00 	jmp	0x116	; 0x116 <__bad_interrupt>
  d4:	0c 94 8b 00 	jmp	0x116	; 0x116 <__bad_interrupt>
  d8:	0c 94 8b 00 	jmp	0x116	; 0x116 <__bad_interrupt>
  dc:	0c 94 8b 00 	jmp	0x116	; 0x116 <__bad_interrupt>
  e0:	0c 94 8b 00 	jmp	0x116	; 0x116 <__bad_interrupt>

000000e4 <__ctors_end>:
  e4:	11 24       	eor	r1, r1
  e6:	1f be       	out	0x3f, r1	; 63
  e8:	cf ef       	ldi	r28, 0xFF	; 255
  ea:	d1 e2       	ldi	r29, 0x21	; 33
  ec:	de bf       	out	0x3e, r29	; 62
  ee:	cd bf       	out	0x3d, r28	; 61
  f0:	00 e0       	ldi	r16, 0x00	; 0
  f2:	0c bf       	out	0x3c, r16	; 60

000000f4 <__do_copy_data>:
  f4:	12 e0       	ldi	r17, 0x02	; 2

000000f6 <.Loc.1>:
  f6:	a0 e0       	ldi	r26, 0x00	; 0

000000f8 <.Loc.2>:
  f8:	b2 e0       	ldi	r27, 0x02	; 2

000000fa <.Loc.3>:
  fa:	ec e4       	ldi	r30, 0x4C	; 76

000000fc <.Loc.4>:
  fc:	f6 e0       	ldi	r31, 0x06	; 6

000000fe <.Loc.5>:
  fe:	00 e0       	ldi	r16, 0x00	; 0

00000100 <.Loc.6>:
 100:	0b bf       	out	0x3b, r16	; 59

00000102 <.Loc.7>:
 102:	02 c0       	rjmp	.+4      	; 0x108 <.L__do_copy_data_start>

00000104 <.L__do_copy_data_loop>:
 104:	07 90       	elpm	r0, Z+

00000106 <.Loc.9>:
 106:	0d 92       	st	X+, r0

00000108 <.L__do_copy_data_start>:
 108:	aa 30       	cpi	r26, 0x0A	; 10

0000010a <.Loc.11>:
 10a:	b1 07       	cpc	r27, r17

0000010c <.Loc.12>:
 10c:	d9 f7       	brne	.-10     	; 0x104 <.L__do_copy_data_loop>

0000010e <L0^A>:
 10e:	0e 94 87 01 	call	0x30e	; 0x30e <main>
 112:	0c 94 24 03 	jmp	0x648	; 0x648 <_exit>

00000116 <__bad_interrupt>:
 116:	0c 94 00 00 	jmp	0	; 0x0 <__vectors>

0000011a <initialisatie_communicatie>:
#include "RFID_sensor.h"
#include "Display.h"
#include "Sequence.h"

void initialisatie_communicatie(void) {
    MODNUMMER_DDR |= (1 << MODNUMMER); // output
 11a:	98 9a       	sbi	0x13, 0	; 19

0000011c <.Loc.3>:
    NEXT_MOD_DDR |= (1 << NEXT_MOD);
 11c:	99 9a       	sbi	0x13, 1	; 19

0000011e <.Loc.5>:
    ACK_MOD_DDR |= (1 << ACK_MOD);
 11e:	9a 9a       	sbi	0x13, 2	; 19

00000120 <.Loc.7>:
    LIJN_DDR &= ~(1 << LIJN); //input
 120:	57 98       	cbi	0x0a, 7	; 10

00000122 <.Loc.10>:
    NEXT_AGV_DDR &= ~(1 << NEXT_AGV);
 122:	38 98       	cbi	0x07, 0	; 7

00000124 <.Loc.11>:
    ACK_AGV_DDR &= ~(1 << ACK_AGV);
 124:	50 98       	cbi	0x0a, 0	; 10

00000126 <.Loc.13>:

    MODNUMMER_PORT &= ~(1 << MODNUMMER); //Laag zetten, want detectiemodule
 126:	a0 98       	cbi	0x14, 0	; 20

00000128 <.Loc.15>:
    NEXT_MOD_PORT &= ~(1 << MODNUMMER);
 128:	a0 98       	cbi	0x14, 0	; 20

0000012a <.Loc.17>:
    ACK_MOD_PORT &= ~(1 << ACK_MOD);
 12a:	a2 98       	cbi	0x14, 2	; 20

0000012c <.Loc.19>:

    LIJN_PORT |= (1 << LIJN); // PULL-UPS ACTIVEREN
 12c:	5f 9a       	sbi	0x0b, 7	; 11

0000012e <.Loc.21>:
    NEXT_AGV_PORT |= (1 << NEXT_AGV);
 12e:	40 9a       	sbi	0x08, 0	; 8

00000130 <.Loc.23>:
    ACK_AGV_PORT |= (1 << ACK_AGV);
 130:	58 9a       	sbi	0x0b, 0	; 11

00000132 <.Loc.25>:
}
 132:	08 95       	ret

00000134 <initialisatie_RFID>:

void initialisatie_RFID(void) {
    SSR_DDR |= (1 << SSR);//SS output
 134:	ea e0       	ldi	r30, 0x0A	; 10
 136:	f1 e0       	ldi	r31, 0x01	; 1
 138:	80 81       	ld	r24, Z

0000013a <.Loc.28>:
 13a:	81 60       	ori	r24, 0x01	; 1
 13c:	80 83       	st	Z, r24

0000013e <.Loc.29>:
    SSL_DDR |= (1 << SSL);
 13e:	80 81       	ld	r24, Z

00000140 <.Loc.30>:
 140:	84 60       	ori	r24, 0x04	; 4
 142:	80 83       	st	Z, r24

00000144 <.Loc.31>:
    SCK_DDR |= (1 << SCK);//SCK output
 144:	21 9a       	sbi	0x04, 1	; 4

00000146 <.Loc.33>:
    MOSI_DDR |= (1 << MOSI);//MOSI output
 146:	22 9a       	sbi	0x04, 2	; 4

00000148 <.Loc.35>:
    MISO_DDR &= ~(1 << MISO);//MISO input
 148:	23 98       	cbi	0x04, 3	; 4

0000014a <.Loc.37>:
    RSTR_DDR |= (1 << RSTR);//RST output
 14a:	80 81       	ld	r24, Z

0000014c <.Loc.38>:
 14c:	82 60       	ori	r24, 0x02	; 2
 14e:	80 83       	st	Z, r24

00000150 <.Loc.39>:
    RSTL_DDR |= (1 << RSTL);
 150:	80 81       	ld	r24, Z

00000152 <.Loc.40>:
 152:	88 60       	ori	r24, 0x08	; 8
 154:	80 83       	st	Z, r24

00000156 <.Loc.41>:

    SSR_PORT |= (1 << SSR); // slave niet selecten
 156:	eb e0       	ldi	r30, 0x0B	; 11
 158:	f1 e0       	ldi	r31, 0x01	; 1
 15a:	80 81       	ld	r24, Z

0000015c <.Loc.42>:
 15c:	81 60       	ori	r24, 0x01	; 1
 15e:	80 83       	st	Z, r24

00000160 <.Loc.43>:
    SSL_PORT |= (1 << SSL);
 160:	80 81       	ld	r24, Z

00000162 <.Loc.44>:
 162:	84 60       	ori	r24, 0x04	; 4
 164:	80 83       	st	Z, r24

00000166 <.Loc.45>:
    RSTR_PORT |= (1 << RSTR);
 166:	80 81       	ld	r24, Z

00000168 <.Loc.46>:
 168:	82 60       	ori	r24, 0x02	; 2
 16a:	80 83       	st	Z, r24

0000016c <.Loc.47>:
    RSTL_PORT |= (1 << RSTL);
 16c:	80 81       	ld	r24, Z

0000016e <.Loc.48>:
 16e:	88 60       	ori	r24, 0x08	; 8
 170:	80 83       	st	Z, r24

00000172 <.Loc.49>:

    SPCR |= (1 << SPE);
 172:	8c b5       	in	r24, 0x2c	; 44

00000174 <.Loc.50>:
 174:	80 64       	ori	r24, 0x40	; 64
 176:	8c bd       	out	0x2c, r24	; 44

00000178 <.Loc.51>:
    SPCR &= ~(1 << DORD);
 178:	8c b5       	in	r24, 0x2c	; 44
 17a:	8f 7d       	andi	r24, 0xDF	; 223
 17c:	8c bd       	out	0x2c, r24	; 44

0000017e <.Loc.53>:
    SPCR |= (1 << MSTR);
 17e:	8c b5       	in	r24, 0x2c	; 44

00000180 <.Loc.54>:
 180:	80 61       	ori	r24, 0x10	; 16
 182:	8c bd       	out	0x2c, r24	; 44

00000184 <.Loc.55>:
    SPCR &= ~(1 << CPOL);
 184:	8c b5       	in	r24, 0x2c	; 44
 186:	87 7f       	andi	r24, 0xF7	; 247
 188:	8c bd       	out	0x2c, r24	; 44

0000018a <.Loc.57>:
    SPCR &= ~(1 << CPHA);
 18a:	8c b5       	in	r24, 0x2c	; 44
 18c:	8b 7f       	andi	r24, 0xFB	; 251
 18e:	8c bd       	out	0x2c, r24	; 44

00000190 <.Loc.59>:
    SPCR &= ~(1 << SPR1);
 190:	8c b5       	in	r24, 0x2c	; 44
 192:	8d 7f       	andi	r24, 0xFD	; 253
 194:	8c bd       	out	0x2c, r24	; 44

00000196 <.Loc.61>:
    SPCR &= ~(1 << SPR0);
 196:	8c b5       	in	r24, 0x2c	; 44
 198:	8e 7f       	andi	r24, 0xFE	; 254
 19a:	8c bd       	out	0x2c, r24	; 44

0000019c <.Loc.63>:

    SPSR &= ~(1 << SPI2X);
 19c:	8d b5       	in	r24, 0x2d	; 45
 19e:	8e 7f       	andi	r24, 0xFE	; 254
 1a0:	8d bd       	out	0x2d, r24	; 45

000001a2 <.Loc.65>:
}
 1a2:	08 95       	ret

000001a4 <initialisatie_IRsensor>:

void initialisatie_IRsensor(void){
    IR_R_DDR &= ~(1 << IR_R); //input
 1a4:	ea e0       	ldi	r30, 0x0A	; 10
 1a6:	f1 e0       	ldi	r31, 0x01	; 1
 1a8:	80 81       	ld	r24, Z
 1aa:	8f 7d       	andi	r24, 0xDF	; 223
 1ac:	80 83       	st	Z, r24

000001ae <.Loc.69>:
    IR_L_DDR &= ~(1 << IR_L); //input
 1ae:	80 81       	ld	r24, Z
 1b0:	8f 7e       	andi	r24, 0xEF	; 239
 1b2:	80 83       	st	Z, r24

000001b4 <.Loc.71>:

    IR_R_PORT |= (1 << IR_R);
 1b4:	eb e0       	ldi	r30, 0x0B	; 11
 1b6:	f1 e0       	ldi	r31, 0x01	; 1
 1b8:	80 81       	ld	r24, Z

000001ba <.Loc.72>:
 1ba:	80 62       	ori	r24, 0x20	; 32
 1bc:	80 83       	st	Z, r24

000001be <.Loc.73>:
    IR_L_PORT |= (1 << IR_L);
 1be:	80 81       	ld	r24, Z

000001c0 <.Loc.74>:
 1c0:	80 61       	ori	r24, 0x10	; 16
 1c2:	80 83       	st	Z, r24

000001c4 <.Loc.75>:
}
 1c4:	08 95       	ret

000001c6 <send_byte>:
const uint8_t segmentMap[] = {
    0x3F, 0x06, 0x5B, 0x4F, 0x66, 0x6D, 0x7D, 0x07, 0x7F, 0x6F
};

// Display
void send_byte(uint8_t data) {
 1c6:	28 e0       	ldi	r18, 0x08	; 8

000001c8 <.Loc.81>:
    for (uint8_t i = 0; i < 8; i++) {
        CLK_LOW();
 1c8:	eb e0       	ldi	r30, 0x0B	; 11
 1ca:	f1 e0       	ldi	r31, 0x01	; 1
 1cc:	16 c0       	rjmp	.+44     	; 0x1fa <.L7>

000001ce <.L5>:
        if (data & 0x01) DIO_HIGH(); else DIO_LOW();
 1ce:	90 81       	ld	r25, Z
 1d0:	9f 77       	andi	r25, 0x7F	; 127
 1d2:	90 83       	st	Z, r25

000001d4 <.L6>:
	#else
		//round up by default
		__ticks_dc = (uint32_t)(ceil(fabs(__tmp)));
	#endif

	__builtin_avr_delay_cycles(__ticks_dc);
 1d4:	a7 ec       	ldi	r26, 0xC7	; 199
 1d6:	b0 e0       	ldi	r27, 0x00	; 0

000001d8 <.L1^B1>:
 1d8:	11 97       	sbiw	r26, 0x01	; 1
 1da:	f1 f7       	brne	.-4      	; 0x1d8 <.L1^B1>
 1dc:	00 c0       	rjmp	.+0      	; 0x1de <L0^A>

000001de <L0^A>:
	...

000001e0 <.LBE20>:
        _delay_us(50);
        CLK_HIGH();
 1e0:	90 81       	ld	r25, Z
 1e2:	90 64       	ori	r25, 0x40	; 64
 1e4:	90 83       	st	Z, r25

000001e6 <.LBB22>:
 1e6:	a7 ec       	ldi	r26, 0xC7	; 199
 1e8:	b0 e0       	ldi	r27, 0x00	; 0

000001ea <.L1^B2>:
 1ea:	11 97       	sbiw	r26, 0x01	; 1
 1ec:	f1 f7       	brne	.-4      	; 0x1ea <.L1^B2>
 1ee:	00 c0       	rjmp	.+0      	; 0x1f0 <L0^A>

000001f0 <L0^A>:
	...

000001f2 <.LBE22>:
        _delay_us(50);
        data >>= 1;
 1f2:	86 95       	lsr	r24

000001f4 <.Loc.104>:
    for (uint8_t i = 0; i < 8; i++) {
 1f4:	21 50       	subi	r18, 0x01	; 1

000001f6 <.Loc.106>:
 1f6:	22 23       	and	r18, r18
 1f8:	49 f0       	breq	.+18     	; 0x20c <.L9>

000001fa <.L7>:
        CLK_LOW();
 1fa:	90 81       	ld	r25, Z
 1fc:	9f 7b       	andi	r25, 0xBF	; 191
 1fe:	90 83       	st	Z, r25

00000200 <.Loc.108>:
        if (data & 0x01) DIO_HIGH(); else DIO_LOW();
 200:	80 ff       	sbrs	r24, 0
 202:	e5 cf       	rjmp	.-54     	; 0x1ce <.L5>

00000204 <.Loc.110>:
 204:	90 81       	ld	r25, Z
 206:	90 68       	ori	r25, 0x80	; 128
 208:	90 83       	st	Z, r25
 20a:	e4 cf       	rjmp	.-56     	; 0x1d4 <.L6>

0000020c <.L9>:
    }
    // Wachten op ACK (Acknowledgement)
    CLK_LOW();
 20c:	eb e0       	ldi	r30, 0x0B	; 11
 20e:	f1 e0       	ldi	r31, 0x01	; 1
 210:	80 81       	ld	r24, Z

00000212 <.Loc.113>:
 212:	8f 7b       	andi	r24, 0xBF	; 191
 214:	80 83       	st	Z, r24

00000216 <.Loc.114>:
    DIO_INPUT();
 216:	aa e0       	ldi	r26, 0x0A	; 10
 218:	b1 e0       	ldi	r27, 0x01	; 1
 21a:	8c 91       	ld	r24, X
 21c:	8f 77       	andi	r24, 0x7F	; 127
 21e:	8c 93       	st	X, r24

00000220 <.LBB25>:
 220:	87 ec       	ldi	r24, 0xC7	; 199
 222:	90 e0       	ldi	r25, 0x00	; 0

00000224 <.L1^B3>:
 224:	01 97       	sbiw	r24, 0x01	; 1
 226:	f1 f7       	brne	.-4      	; 0x224 <.L1^B3>
 228:	00 c0       	rjmp	.+0      	; 0x22a <L0^A>

0000022a <L0^A>:
	...

0000022c <.LBE25>:
    _delay_us(50);
    CLK_HIGH();
 22c:	80 81       	ld	r24, Z
 22e:	80 64       	ori	r24, 0x40	; 64
 230:	80 83       	st	Z, r24

00000232 <.LBB27>:
 232:	87 ec       	ldi	r24, 0xC7	; 199
 234:	90 e0       	ldi	r25, 0x00	; 0

00000236 <.L1^B4>:
 236:	01 97       	sbiw	r24, 0x01	; 1
 238:	f1 f7       	brne	.-4      	; 0x236 <.L1^B4>
 23a:	00 c0       	rjmp	.+0      	; 0x23c <L0^A>

0000023c <L0^A>:
	...

0000023e <.LBE27>:
    _delay_us(50);
    CLK_LOW();
 23e:	80 81       	ld	r24, Z
 240:	8f 7b       	andi	r24, 0xBF	; 191
 242:	80 83       	st	Z, r24

00000244 <.Loc.135>:
    DIO_OUTPUT();
 244:	8c 91       	ld	r24, X
 246:	80 68       	ori	r24, 0x80	; 128
 248:	8c 93       	st	X, r24

0000024a <.Loc.136>:
}
 24a:	08 95       	ret

0000024c <tm_start>:

// Display
void tm_start() {
    DIO_OUTPUT(); DIO_HIGH(); CLK_HIGH(); _delay_us(50);
 24c:	ea e0       	ldi	r30, 0x0A	; 10
 24e:	f1 e0       	ldi	r31, 0x01	; 1
 250:	80 81       	ld	r24, Z
 252:	80 68       	ori	r24, 0x80	; 128
 254:	80 83       	st	Z, r24

00000256 <.Loc.139>:
 256:	eb e0       	ldi	r30, 0x0B	; 11
 258:	f1 e0       	ldi	r31, 0x01	; 1
 25a:	80 81       	ld	r24, Z
 25c:	80 68       	ori	r24, 0x80	; 128
 25e:	80 83       	st	Z, r24

00000260 <.Loc.140>:
 260:	80 81       	ld	r24, Z
 262:	80 64       	ori	r24, 0x40	; 64
 264:	80 83       	st	Z, r24

00000266 <.LBB29>:
 266:	87 ec       	ldi	r24, 0xC7	; 199
 268:	90 e0       	ldi	r25, 0x00	; 0

0000026a <.L1^B5>:
 26a:	01 97       	sbiw	r24, 0x01	; 1
 26c:	f1 f7       	brne	.-4      	; 0x26a <.L1^B5>
 26e:	00 c0       	rjmp	.+0      	; 0x270 <L0^A>

00000270 <L0^A>:
	...

00000272 <.LBE29>:
    DIO_LOW(); _delay_us(50); CLK_LOW();
 272:	80 81       	ld	r24, Z
 274:	8f 77       	andi	r24, 0x7F	; 127
 276:	80 83       	st	Z, r24

00000278 <.LBB31>:
 278:	87 ec       	ldi	r24, 0xC7	; 199
 27a:	90 e0       	ldi	r25, 0x00	; 0

0000027c <.L1^B6>:
 27c:	01 97       	sbiw	r24, 0x01	; 1
 27e:	f1 f7       	brne	.-4      	; 0x27c <.L1^B6>
 280:	00 c0       	rjmp	.+0      	; 0x282 <L0^A>

00000282 <L0^A>:
	...

00000284 <.LBE31>:
 284:	80 81       	ld	r24, Z
 286:	8f 7b       	andi	r24, 0xBF	; 191
 288:	80 83       	st	Z, r24

0000028a <.Loc.161>:
}
 28a:	08 95       	ret

0000028c <tm_stop>:

// Display
void tm_stop() {
    CLK_LOW(); DIO_LOW(); _delay_us(50);
 28c:	eb e0       	ldi	r30, 0x0B	; 11
 28e:	f1 e0       	ldi	r31, 0x01	; 1
 290:	80 81       	ld	r24, Z
 292:	8f 7b       	andi	r24, 0xBF	; 191
 294:	80 83       	st	Z, r24

00000296 <.Loc.164>:
 296:	80 81       	ld	r24, Z
 298:	8f 77       	andi	r24, 0x7F	; 127
 29a:	80 83       	st	Z, r24

0000029c <.LBB33>:
 29c:	87 ec       	ldi	r24, 0xC7	; 199
 29e:	90 e0       	ldi	r25, 0x00	; 0

000002a0 <.L1^B7>:
 2a0:	01 97       	sbiw	r24, 0x01	; 1
 2a2:	f1 f7       	brne	.-4      	; 0x2a0 <.L1^B7>
 2a4:	00 c0       	rjmp	.+0      	; 0x2a6 <L0^A>

000002a6 <L0^A>:
	...

000002a8 <.LBE33>:
    CLK_HIGH(); _delay_us(50); DIO_HIGH();
 2a8:	80 81       	ld	r24, Z
 2aa:	80 64       	ori	r24, 0x40	; 64
 2ac:	80 83       	st	Z, r24

000002ae <.LBB35>:
 2ae:	87 ec       	ldi	r24, 0xC7	; 199
 2b0:	90 e0       	ldi	r25, 0x00	; 0

000002b2 <.L1^B8>:
 2b2:	01 97       	sbiw	r24, 0x01	; 1
 2b4:	f1 f7       	brne	.-4      	; 0x2b2 <.L1^B8>
 2b6:	00 c0       	rjmp	.+0      	; 0x2b8 <L0^A>

000002b8 <L0^A>:
	...

000002ba <.LBE35>:
 2ba:	80 81       	ld	r24, Z
 2bc:	80 68       	ori	r24, 0x80	; 128
 2be:	80 83       	st	Z, r24

000002c0 <.Loc.185>:
}
 2c0:	08 95       	ret

000002c2 <initialisatie_display>:

void initialisatie_display(void){// initialisatie display
    // Stel pinnen in als output
    CLK_DDR |= (1 << CLK);
 2c2:	ea e0       	ldi	r30, 0x0A	; 10
 2c4:	f1 e0       	ldi	r31, 0x01	; 1
 2c6:	80 81       	ld	r24, Z

000002c8 <.Loc.188>:
 2c8:	80 64       	ori	r24, 0x40	; 64
 2ca:	80 83       	st	Z, r24

000002cc <.Loc.189>:
    DIO_DDR |= (1 << DIO);
 2cc:	80 81       	ld	r24, Z

000002ce <.Loc.190>:
 2ce:	80 68       	ori	r24, 0x80	; 128
 2d0:	80 83       	st	Z, r24

000002d2 <.Loc.191>:

    // Initialiseer display: Commando 0x8A zet display AAN en helderheid op een gemiddeld niveau
    tm_start();
 2d2:	0e 94 26 01 	call	0x24c	; 0x24c <tm_start>

000002d6 <.LVL22>:
    send_byte(0x8A);
 2d6:	8a e8       	ldi	r24, 0x8A	; 138
 2d8:	0e 94 e3 00 	call	0x1c6	; 0x1c6 <send_byte>

000002dc <.LVL23>:
    tm_stop();
 2dc:	0e 94 46 01 	call	0x28c	; 0x28c <tm_stop>

000002e0 <.LVL24>:
    // start met 0 op het display
    //tm1637_showNumber(0);

}
 2e0:	08 95       	ret

000002e2 <initialisatie_leds>:

void initialisatie_leds(void) {
    LED_BLAUW_DDR |= (1 << LED_BLAUW);
 2e2:	3a 9a       	sbi	0x07, 2	; 7

000002e4 <.Loc.198>:
    LED_GROEN_DDR |= (1 << LED_GROEN);
 2e4:	3b 9a       	sbi	0x07, 3	; 7

000002e6 <.Loc.200>:

    LED_BLAUW_PORT &= ~(1 << LED_BLAUW);
 2e6:	42 98       	cbi	0x08, 2	; 8

000002e8 <.Loc.202>:
    LED_GROEN_PORT &= ~(1 << LED_GROEN);
 2e8:	43 98       	cbi	0x08, 3	; 8

000002ea <.Loc.204>:
}
 2ea:	08 95       	ret

000002ec <initialisatie_knop>:

void initialisatie_knop(void) {
    KNOP_DDR &= ~(1 << KNOP); //INPUT
 2ec:	3c 98       	cbi	0x07, 4	; 7

000002ee <.Loc.208>:

    KNOP_PORT |= (1 << KNOP); //PULL-UP
 2ee:	44 9a       	sbi	0x08, 4	; 8

000002f0 <.Loc.210>:
}
 2f0:	08 95       	ret

000002f2 <initialisatie>:

void initialisatie(void) { //pinnen initialiseren
    initialisatie_communicatie();
 2f2:	0e 94 8d 00 	call	0x11a	; 0x11a <initialisatie_communicatie>

000002f6 <.LVL25>:
    initialisatie_RFID();
 2f6:	0e 94 9a 00 	call	0x134	; 0x134 <initialisatie_RFID>

000002fa <.LVL26>:
    initialisatie_IRsensor();
 2fa:	0e 94 d2 00 	call	0x1a4	; 0x1a4 <initialisatie_IRsensor>

000002fe <.LVL27>:
    initialisatie_display();
 2fe:	0e 94 61 01 	call	0x2c2	; 0x2c2 <initialisatie_display>

00000302 <.LVL28>:
    initialisatie_leds();
 302:	0e 94 71 01 	call	0x2e2	; 0x2e2 <initialisatie_leds>

00000306 <.LVL29>:
    initialisatie_knop();
 306:	0e 94 76 01 	call	0x2ec	; 0x2ec <initialisatie_knop>

0000030a <.LVL30>:
    sei();
 30a:	78 94       	sei

0000030c <.Loc.219>:
}
 30c:	08 95       	ret

0000030e <main>:
#include "Sequence.h"

int main(void)
{

    initialisatie();
 30e:	0e 94 79 01 	call	0x2f2	; 0x2f2 <initialisatie>

00000312 <.L2>:

    while(1) {
        if ((KNOP_PIN & KNOP )== 0) {
 312:	32 99       	sbic	0x06, 2	; 6
 314:	fe cf       	rjmp	.-4      	; 0x312 <.L2>

00000316 <.Loc.5>:
            sequence();
 316:	0e 94 12 03 	call	0x624	; 0x624 <sequence>

0000031a <.LVL1>:
 31a:	fb cf       	rjmp	.-10     	; 0x312 <.L2>

0000031c <spi_transfer>:
#include "Display.h"
#include "Sequence.h"

// SPI Basic Transceiver
uint8_t spi_transfer(uint8_t data) {
    SPDR = data;
 31c:	8e bd       	out	0x2e, r24	; 46

0000031e <.L2>:
    while (!(SPSR & (1 << SPIF)));
 31e:	0d b4       	in	r0, 0x2d	; 45
 320:	07 fe       	sbrs	r0, 7
 322:	fd cf       	rjmp	.-6      	; 0x31e <.L2>

00000324 <.Loc.5>:
    return SPDR;
 324:	8e b5       	in	r24, 0x2e	; 46

00000326 <.Loc.7>:
}
 326:	08 95       	ret

00000328 <write_reg_R>:

// Write to RC522 Register rechts
void write_reg_R(uint8_t reg, uint8_t value) {
 328:	1f 93       	push	r17
 32a:	cf 93       	push	r28
 32c:	df 93       	push	r29
 32e:	16 2f       	mov	r17, r22

00000330 <.Loc.10>:
    SSR_PORT &= ~(1 << SSR);
 330:	cb e0       	ldi	r28, 0x0B	; 11
 332:	d1 e0       	ldi	r29, 0x01	; 1
 334:	98 81       	ld	r25, Y
 336:	9e 7f       	andi	r25, 0xFE	; 254
 338:	98 83       	st	Y, r25

0000033a <.Loc.12>:
    spi_transfer((reg << 1) & 0x7E);
 33a:	88 0f       	add	r24, r24

0000033c <.Loc.14>:
 33c:	8e 77       	andi	r24, 0x7E	; 126
 33e:	0e 94 8e 01 	call	0x31c	; 0x31c <spi_transfer>

00000342 <.LVL4>:
    spi_transfer(value);
 342:	81 2f       	mov	r24, r17
 344:	0e 94 8e 01 	call	0x31c	; 0x31c <spi_transfer>

00000348 <.LVL5>:
    SSR_PORT |= (1 << SSR);
 348:	88 81       	ld	r24, Y

0000034a <.Loc.17>:
 34a:	81 60       	ori	r24, 0x01	; 1
 34c:	88 83       	st	Y, r24

0000034e <.Loc.18>:
}
 34e:	df 91       	pop	r29
 350:	cf 91       	pop	r28
 352:	1f 91       	pop	r17

00000354 <.Loc.19>:
 354:	08 95       	ret

00000356 <read_reg_R>:

// Read from RC522 Register rechts
uint8_t read_reg_R(uint8_t reg) {
 356:	cf 93       	push	r28
 358:	df 93       	push	r29

0000035a <.Loc.22>:
    uint8_t value;
    SSR_PORT &= ~(1 << SSR);
 35a:	cb e0       	ldi	r28, 0x0B	; 11
 35c:	d1 e0       	ldi	r29, 0x01	; 1
 35e:	98 81       	ld	r25, Y
 360:	9e 7f       	andi	r25, 0xFE	; 254
 362:	98 83       	st	Y, r25

00000364 <.Loc.25>:
    spi_transfer(((reg << 1) & 0x7E) | 0x80);
 364:	88 0f       	add	r24, r24

00000366 <.Loc.27>:
 366:	8e 77       	andi	r24, 0x7E	; 126

00000368 <.Loc.28>:
 368:	80 68       	ori	r24, 0x80	; 128
 36a:	0e 94 8e 01 	call	0x31c	; 0x31c <spi_transfer>

0000036e <.LVL9>:
    value = spi_transfer(0x00);
 36e:	80 e0       	ldi	r24, 0x00	; 0
 370:	0e 94 8e 01 	call	0x31c	; 0x31c <spi_transfer>

00000374 <.LVL10>:
    SSR_PORT |= (1 << SSR);
 374:	98 81       	ld	r25, Y

00000376 <.Loc.32>:
 376:	91 60       	ori	r25, 0x01	; 1
 378:	98 83       	st	Y, r25

0000037a <.Loc.33>:
    return value;
}
 37a:	df 91       	pop	r29
 37c:	cf 91       	pop	r28
 37e:	08 95       	ret

00000380 <write_reg_L>:

// Write to RC522 Register links
void write_reg_L(uint8_t reg, uint8_t value) {
 380:	1f 93       	push	r17
 382:	cf 93       	push	r28
 384:	df 93       	push	r29
 386:	16 2f       	mov	r17, r22

00000388 <.Loc.37>:
    SSL_PORT &= ~(1 << SSL);
 388:	cb e0       	ldi	r28, 0x0B	; 11
 38a:	d1 e0       	ldi	r29, 0x01	; 1
 38c:	98 81       	ld	r25, Y
 38e:	9b 7f       	andi	r25, 0xFB	; 251
 390:	98 83       	st	Y, r25

00000392 <.Loc.39>:
    spi_transfer((reg << 1) & 0x7E);
 392:	88 0f       	add	r24, r24

00000394 <.Loc.41>:
 394:	8e 77       	andi	r24, 0x7E	; 126
 396:	0e 94 8e 01 	call	0x31c	; 0x31c <spi_transfer>

0000039a <.LVL13>:
    spi_transfer(value);
 39a:	81 2f       	mov	r24, r17
 39c:	0e 94 8e 01 	call	0x31c	; 0x31c <spi_transfer>

000003a0 <.LVL14>:
    SSL_PORT |= (1 << SSL);
 3a0:	88 81       	ld	r24, Y

000003a2 <.Loc.44>:
 3a2:	84 60       	ori	r24, 0x04	; 4
 3a4:	88 83       	st	Y, r24

000003a6 <.Loc.45>:
}
 3a6:	df 91       	pop	r29
 3a8:	cf 91       	pop	r28
 3aa:	1f 91       	pop	r17

000003ac <.Loc.46>:
 3ac:	08 95       	ret

000003ae <read_reg_L>:

// Read from RC522 Register links
uint8_t read_reg_L(uint8_t reg) {
 3ae:	cf 93       	push	r28
 3b0:	df 93       	push	r29

000003b2 <.Loc.49>:
    uint8_t value;
    SSL_PORT &= ~(1 << SSL);
 3b2:	cb e0       	ldi	r28, 0x0B	; 11
 3b4:	d1 e0       	ldi	r29, 0x01	; 1
 3b6:	98 81       	ld	r25, Y
 3b8:	9b 7f       	andi	r25, 0xFB	; 251
 3ba:	98 83       	st	Y, r25

000003bc <.Loc.52>:
    spi_transfer(((reg << 1) & 0x7E) | 0x80);
 3bc:	88 0f       	add	r24, r24

000003be <.Loc.54>:
 3be:	8e 77       	andi	r24, 0x7E	; 126

000003c0 <.Loc.55>:
 3c0:	80 68       	ori	r24, 0x80	; 128
 3c2:	0e 94 8e 01 	call	0x31c	; 0x31c <spi_transfer>

000003c6 <.LVL18>:
    value = spi_transfer(0x00);
 3c6:	80 e0       	ldi	r24, 0x00	; 0
 3c8:	0e 94 8e 01 	call	0x31c	; 0x31c <spi_transfer>

000003cc <.LVL19>:
    SSL_PORT |= (1 << SSL);
 3cc:	98 81       	ld	r25, Y

000003ce <.Loc.59>:
 3ce:	94 60       	ori	r25, 0x04	; 4
 3d0:	98 83       	st	Y, r25

000003d2 <.Loc.60>:
    return value;
}
 3d2:	df 91       	pop	r29
 3d4:	cf 91       	pop	r28
 3d6:	08 95       	ret

000003d8 <rc522_init>:

// Initialize the RC522
void rc522_init() {
    // Perform a hard reset by cycling the RST pin

    RSTR_PORT |= (1 << RSTR);
 3d8:	eb e0       	ldi	r30, 0x0B	; 11
 3da:	f1 e0       	ldi	r31, 0x01	; 1
 3dc:	80 81       	ld	r24, Z

000003de <.Loc.64>:
 3de:	82 60       	ori	r24, 0x02	; 2
 3e0:	80 83       	st	Z, r24

000003e2 <.LBB24>:
	__builtin_avr_delay_cycles(__ticks_dc);
 3e2:	2f ef       	ldi	r18, 0xFF	; 255
 3e4:	80 e7       	ldi	r24, 0x70	; 112
 3e6:	92 e0       	ldi	r25, 0x02	; 2

000003e8 <.L1^B1>:
 3e8:	21 50       	subi	r18, 0x01	; 1
 3ea:	80 40       	sbci	r24, 0x00	; 0
 3ec:	90 40       	sbci	r25, 0x00	; 0
 3ee:	e1 f7       	brne	.-8      	; 0x3e8 <.L1^B1>
 3f0:	00 c0       	rjmp	.+0      	; 0x3f2 <L0^A>

000003f2 <L0^A>:
	...

000003f4 <.LBE24>:
    _delay_ms(50);
    RSTR_PORT &= ~(1 << RSTR);
 3f4:	80 81       	ld	r24, Z
 3f6:	8d 7f       	andi	r24, 0xFD	; 253
 3f8:	80 83       	st	Z, r24

000003fa <.LBB26>:
 3fa:	2f ef       	ldi	r18, 0xFF	; 255
 3fc:	80 e7       	ldi	r24, 0x70	; 112
 3fe:	92 e0       	ldi	r25, 0x02	; 2

00000400 <.L1^B2>:
 400:	21 50       	subi	r18, 0x01	; 1
 402:	80 40       	sbci	r24, 0x00	; 0
 404:	90 40       	sbci	r25, 0x00	; 0
 406:	e1 f7       	brne	.-8      	; 0x400 <.L1^B2>
 408:	00 c0       	rjmp	.+0      	; 0x40a <L0^A>

0000040a <L0^A>:
	...

0000040c <.LBE26>:
    _delay_ms(50);
    RSTR_PORT |= (1 << RSTR);
 40c:	80 81       	ld	r24, Z

0000040e <.Loc.86>:
 40e:	82 60       	ori	r24, 0x02	; 2
 410:	80 83       	st	Z, r24

00000412 <.LBB28>:
 412:	2f ef       	ldi	r18, 0xFF	; 255
 414:	80 e7       	ldi	r24, 0x70	; 112
 416:	92 e0       	ldi	r25, 0x02	; 2

00000418 <.L1^B3>:
 418:	21 50       	subi	r18, 0x01	; 1
 41a:	80 40       	sbci	r24, 0x00	; 0
 41c:	90 40       	sbci	r25, 0x00	; 0
 41e:	e1 f7       	brne	.-8      	; 0x418 <.L1^B3>
 420:	00 c0       	rjmp	.+0      	; 0x422 <L0^A>

00000422 <L0^A>:
	...

00000424 <.LBE28>:
    _delay_ms(50);

    RSTL_PORT |= (1 << RSTL);
 424:	80 81       	ld	r24, Z

00000426 <.Loc.97>:
 426:	88 60       	ori	r24, 0x08	; 8
 428:	80 83       	st	Z, r24

0000042a <.LBB30>:
 42a:	2f ef       	ldi	r18, 0xFF	; 255
 42c:	80 e7       	ldi	r24, 0x70	; 112
 42e:	92 e0       	ldi	r25, 0x02	; 2

00000430 <.L1^B4>:
 430:	21 50       	subi	r18, 0x01	; 1
 432:	80 40       	sbci	r24, 0x00	; 0
 434:	90 40       	sbci	r25, 0x00	; 0
 436:	e1 f7       	brne	.-8      	; 0x430 <.L1^B4>
 438:	00 c0       	rjmp	.+0      	; 0x43a <L0^A>

0000043a <L0^A>:
	...

0000043c <.LBE30>:
    _delay_ms(50);
    RSTL_PORT &= ~(1 << RSTL);
 43c:	80 81       	ld	r24, Z
 43e:	87 7f       	andi	r24, 0xF7	; 247
 440:	80 83       	st	Z, r24

00000442 <.LBB32>:
 442:	2f ef       	ldi	r18, 0xFF	; 255
 444:	80 e7       	ldi	r24, 0x70	; 112
 446:	92 e0       	ldi	r25, 0x02	; 2

00000448 <.L1^B5>:
 448:	21 50       	subi	r18, 0x01	; 1
 44a:	80 40       	sbci	r24, 0x00	; 0
 44c:	90 40       	sbci	r25, 0x00	; 0
 44e:	e1 f7       	brne	.-8      	; 0x448 <.L1^B5>
 450:	00 c0       	rjmp	.+0      	; 0x452 <L0^A>

00000452 <L0^A>:
	...

00000454 <.LBE32>:
    _delay_ms(50);
    RSTL_PORT |= (1 << RSTL);
 454:	80 81       	ld	r24, Z

00000456 <.Loc.119>:
 456:	88 60       	ori	r24, 0x08	; 8
 458:	80 83       	st	Z, r24

0000045a <.LBB34>:
 45a:	2f ef       	ldi	r18, 0xFF	; 255
 45c:	80 e7       	ldi	r24, 0x70	; 112
 45e:	92 e0       	ldi	r25, 0x02	; 2

00000460 <.L1^B6>:
 460:	21 50       	subi	r18, 0x01	; 1
 462:	80 40       	sbci	r24, 0x00	; 0
 464:	90 40       	sbci	r25, 0x00	; 0
 466:	e1 f7       	brne	.-8      	; 0x460 <.L1^B6>
 468:	00 c0       	rjmp	.+0      	; 0x46a <L0^A>

0000046a <L0^A>:
	...

0000046c <.LBE34>:
    _delay_ms(50);

    // Default configuration to wake up internal transceivers
    write_reg_R(ModeReg, 0x3D);
 46c:	6d e3       	ldi	r22, 0x3D	; 61
 46e:	81 e1       	ldi	r24, 0x11	; 17
 470:	0e 94 94 01 	call	0x328	; 0x328 <write_reg_R>

00000474 <.LVL32>:
    write_reg_R(TxASKReg, 0x40);
 474:	60 e4       	ldi	r22, 0x40	; 64
 476:	85 e1       	ldi	r24, 0x15	; 21
 478:	0e 94 94 01 	call	0x328	; 0x328 <write_reg_R>

0000047c <.LVL33>:

    write_reg_L(ModeReg, 0x3D);
 47c:	6d e3       	ldi	r22, 0x3D	; 61
 47e:	81 e1       	ldi	r24, 0x11	; 17
 480:	0e 94 c0 01 	call	0x380	; 0x380 <write_reg_L>

00000484 <.LVL34>:
    write_reg_L(TxASKReg, 0x40);
 484:	60 e4       	ldi	r22, 0x40	; 64
 486:	85 e1       	ldi	r24, 0x15	; 21
 488:	0e 94 c0 01 	call	0x380	; 0x380 <write_reg_L>

0000048c <.LVL35>:

    // Turn on the reading antenna
    uint8_t currentR = read_reg_R(TxControlReg);
 48c:	84 e1       	ldi	r24, 0x14	; 20
 48e:	0e 94 ab 01 	call	0x356	; 0x356 <read_reg_R>

00000492 <.LVL36>:
    if ((currentR & 0x03) != 0x03) {
 492:	98 2f       	mov	r25, r24
 494:	93 70       	andi	r25, 0x03	; 3
 496:	93 30       	cpi	r25, 0x03	; 3
 498:	41 f4       	brne	.+16     	; 0x4aa <.L11>

0000049a <.L9>:
        write_reg_R(TxControlReg, currentR | 0x03);
    }

    uint8_t currentL = read_reg_L(TxControlReg);
 49a:	84 e1       	ldi	r24, 0x14	; 20
 49c:	0e 94 d7 01 	call	0x3ae	; 0x3ae <read_reg_L>

000004a0 <.LVL38>:
    if ((currentL & 0x03) != 0x03) {
 4a0:	98 2f       	mov	r25, r24
 4a2:	93 70       	andi	r25, 0x03	; 3
 4a4:	93 30       	cpi	r25, 0x03	; 3
 4a6:	39 f4       	brne	.+14     	; 0x4b6 <.L12>

000004a8 <.L8>:
        write_reg_L(TxControlReg, currentL | 0x03);
    }
}
 4a8:	08 95       	ret

000004aa <.L11>:
        write_reg_R(TxControlReg, currentR | 0x03);
 4aa:	68 2f       	mov	r22, r24
 4ac:	63 60       	ori	r22, 0x03	; 3
 4ae:	84 e1       	ldi	r24, 0x14	; 20

000004b0 <.Loc.143>:
 4b0:	0e 94 94 01 	call	0x328	; 0x328 <write_reg_R>

000004b4 <.LVL42>:
 4b4:	f2 cf       	rjmp	.-28     	; 0x49a <.L9>

000004b6 <.L12>:
        write_reg_L(TxControlReg, currentL | 0x03);
 4b6:	68 2f       	mov	r22, r24
 4b8:	63 60       	ori	r22, 0x03	; 3
 4ba:	84 e1       	ldi	r24, 0x14	; 20

000004bc <.Loc.145>:
 4bc:	0e 94 c0 01 	call	0x380	; 0x380 <write_reg_L>

000004c0 <.LVL45>:
}
 4c0:	f3 cf       	rjmp	.-26     	; 0x4a8 <.L8>

000004c2 <tag_detectedR>:

// Scan for a passive RFID tag rechts
int tag_detectedR() {
 4c2:	cf 93       	push	r28
 4c4:	df 93       	push	r29

000004c6 <.Loc.148>:
    write_reg_R(CommandReg, PCD_IDLE);
 4c6:	60 e0       	ldi	r22, 0x00	; 0
 4c8:	81 e0       	ldi	r24, 0x01	; 1
 4ca:	0e 94 94 01 	call	0x328	; 0x328 <write_reg_R>

000004ce <.LVL46>:
    write_reg_R(ComIrqReg, 0x7F);
 4ce:	6f e7       	ldi	r22, 0x7F	; 127
 4d0:	84 e0       	ldi	r24, 0x04	; 4
 4d2:	0e 94 94 01 	call	0x328	; 0x328 <write_reg_R>

000004d6 <.LVL47>:
    write_reg_R(FIFOLevelReg, 0x80); // Flush FIFO
 4d6:	60 e8       	ldi	r22, 0x80	; 128
 4d8:	8a e0       	ldi	r24, 0x0A	; 10
 4da:	0e 94 94 01 	call	0x328	; 0x328 <write_reg_R>

000004de <.LVL48>:

    write_reg_R(FIFODataReg, PICC_REQIDL);
 4de:	66 e2       	ldi	r22, 0x26	; 38
 4e0:	89 e0       	ldi	r24, 0x09	; 9
 4e2:	0e 94 94 01 	call	0x328	; 0x328 <write_reg_R>

000004e6 <.LVL49>:
    write_reg_R(CommandReg, PCD_TRANSCEIVE);
 4e6:	6c e0       	ldi	r22, 0x0C	; 12
 4e8:	81 e0       	ldi	r24, 0x01	; 1
 4ea:	0e 94 94 01 	call	0x328	; 0x328 <write_reg_R>

000004ee <.LVL50>:
    write_reg_R(BitFramingReg, 0x87); // Start communication
 4ee:	67 e8       	ldi	r22, 0x87	; 135
 4f0:	8d e0       	ldi	r24, 0x0D	; 13
 4f2:	0e 94 94 01 	call	0x328	; 0x328 <write_reg_R>

000004f6 <.LVL51>:

    // Wait for the operations to complete or timeout
    uint16_t timeout = 1000;
 4f6:	c8 ee       	ldi	r28, 0xE8	; 232
 4f8:	d3 e0       	ldi	r29, 0x03	; 3

000004fa <.L15>:
    while (timeout > 0) {
        uint8_t irq = read_reg_R(ComIrqReg);
 4fa:	84 e0       	ldi	r24, 0x04	; 4
 4fc:	0e 94 ab 01 	call	0x356	; 0x356 <read_reg_R>

00000500 <.LVL53>:
        if (irq & 0x30) { // Check if Rx and Idle IRQs are set
 500:	80 73       	andi	r24, 0x30	; 48

00000502 <.Loc.162>:
 502:	81 11       	cpse	r24, r1
 504:	0a c0       	rjmp	.+20     	; 0x51a <.L14>

00000506 <.Loc.163>:
            break;
        }
        timeout--;
 506:	21 97       	sbiw	r28, 0x01	; 1

00000508 <.LBB37>:
	__builtin_avr_delay_cycles(__ticks_dc);
 508:	85 e3       	ldi	r24, 0x35	; 53

0000050a <.L1^B7>:
 50a:	8a 95       	dec	r24
 50c:	f1 f7       	brne	.-4      	; 0x50a <.L1^B7>
	...

00000510 <.LBE36>:
    while (timeout > 0) {
 510:	20 97       	sbiw	r28, 0x00	; 0
 512:	99 f7       	brne	.-26     	; 0x4fa <.L15>

00000514 <.Loc.175>:
        _delay_us(10);
    }

    if (timeout == 0) return 0;
 514:	80 e0       	ldi	r24, 0x00	; 0
 516:	90 e0       	ldi	r25, 0x00	; 0
 518:	0d c0       	rjmp	.+26     	; 0x534 <.L13>

0000051a <.L14>:
 51a:	80 e0       	ldi	r24, 0x00	; 0
 51c:	90 e0       	ldi	r25, 0x00	; 0

0000051e <.Loc.178>:
 51e:	cd 2b       	or	r28, r29
 520:	49 f0       	breq	.+18     	; 0x534 <.L13>

00000522 <.Loc.179>:

    // Check for operational or buffer errors
    uint8_t error = read_reg_R(ErrorReg);
 522:	86 e0       	ldi	r24, 0x06	; 6
 524:	0e 94 ab 01 	call	0x356	; 0x356 <read_reg_R>

00000528 <.LVL57>:
    if (error & 0x13) return 0;
 528:	28 2f       	mov	r18, r24
 52a:	23 71       	andi	r18, 0x13	; 19
 52c:	81 e0       	ldi	r24, 0x01	; 1

0000052e <.Loc.183>:
 52e:	90 e0       	ldi	r25, 0x00	; 0
 530:	21 11       	cpse	r18, r1
 532:	80 e0       	ldi	r24, 0x00	; 0

00000534 <.L13>:

    return 1;
}
 534:	df 91       	pop	r29
 536:	cf 91       	pop	r28

00000538 <.Loc.185>:
 538:	08 95       	ret

0000053a <tag_detectedL>:

// Scan for a passive RFID tag links
int tag_detectedL() {
 53a:	cf 93       	push	r28
 53c:	df 93       	push	r29

0000053e <.Loc.187>:
    write_reg_L(CommandReg, PCD_IDLE);
 53e:	60 e0       	ldi	r22, 0x00	; 0
 540:	81 e0       	ldi	r24, 0x01	; 1
 542:	0e 94 c0 01 	call	0x380	; 0x380 <write_reg_L>

00000546 <.LVL61>:
    write_reg_L(ComIrqReg, 0x7F);
 546:	6f e7       	ldi	r22, 0x7F	; 127
 548:	84 e0       	ldi	r24, 0x04	; 4
 54a:	0e 94 c0 01 	call	0x380	; 0x380 <write_reg_L>

0000054e <.LVL62>:
    write_reg_L(FIFOLevelReg, 0x80); // Flush FIFO
 54e:	60 e8       	ldi	r22, 0x80	; 128
 550:	8a e0       	ldi	r24, 0x0A	; 10
 552:	0e 94 c0 01 	call	0x380	; 0x380 <write_reg_L>

00000556 <.LVL63>:

    write_reg_L(FIFODataReg, PICC_REQIDL);
 556:	66 e2       	ldi	r22, 0x26	; 38
 558:	89 e0       	ldi	r24, 0x09	; 9
 55a:	0e 94 c0 01 	call	0x380	; 0x380 <write_reg_L>

0000055e <.LVL64>:
    write_reg_L(CommandReg, PCD_TRANSCEIVE);
 55e:	6c e0       	ldi	r22, 0x0C	; 12
 560:	81 e0       	ldi	r24, 0x01	; 1
 562:	0e 94 c0 01 	call	0x380	; 0x380 <write_reg_L>

00000566 <.LVL65>:
    write_reg_L(BitFramingReg, 0x87); // Start communication
 566:	67 e8       	ldi	r22, 0x87	; 135
 568:	8d e0       	ldi	r24, 0x0D	; 13
 56a:	0e 94 c0 01 	call	0x380	; 0x380 <write_reg_L>

0000056e <.LVL66>:

    // Wait for the operations to complete or timeout
    uint16_t timeout = 1000;
 56e:	c8 ee       	ldi	r28, 0xE8	; 232
 570:	d3 e0       	ldi	r29, 0x03	; 3

00000572 <.L22>:
    while (timeout > 0) {
        uint8_t irq = read_reg_L(ComIrqReg);
 572:	84 e0       	ldi	r24, 0x04	; 4
 574:	0e 94 d7 01 	call	0x3ae	; 0x3ae <read_reg_L>

00000578 <.LVL68>:
        if (irq & 0x30) { // Check if Rx and Idle IRQs are set
 578:	80 73       	andi	r24, 0x30	; 48

0000057a <.Loc.201>:
 57a:	81 11       	cpse	r24, r1
 57c:	0a c0       	rjmp	.+20     	; 0x592 <.L21>

0000057e <.Loc.202>:
            break;
        }
        timeout--;
 57e:	21 97       	sbiw	r28, 0x01	; 1

00000580 <.LBB40>:
 580:	85 e3       	ldi	r24, 0x35	; 53

00000582 <.L1^B8>:
 582:	8a 95       	dec	r24
 584:	f1 f7       	brne	.-4      	; 0x582 <.L1^B8>
	...

00000588 <.LBE39>:
    while (timeout > 0) {
 588:	20 97       	sbiw	r28, 0x00	; 0
 58a:	99 f7       	brne	.-26     	; 0x572 <.L22>

0000058c <.Loc.214>:
        _delay_us(10);
    }

    if (timeout == 0) return 0;
 58c:	80 e0       	ldi	r24, 0x00	; 0
 58e:	90 e0       	ldi	r25, 0x00	; 0
 590:	0d c0       	rjmp	.+26     	; 0x5ac <.L20>

00000592 <.L21>:
 592:	80 e0       	ldi	r24, 0x00	; 0
 594:	90 e0       	ldi	r25, 0x00	; 0

00000596 <.Loc.217>:
 596:	cd 2b       	or	r28, r29
 598:	49 f0       	breq	.+18     	; 0x5ac <.L20>

0000059a <.Loc.218>:

    // Check for operational or buffer errors
    uint8_t error = read_reg_L(ErrorReg);
 59a:	86 e0       	ldi	r24, 0x06	; 6
 59c:	0e 94 d7 01 	call	0x3ae	; 0x3ae <read_reg_L>

000005a0 <.LVL72>:
    if (error & 0x13) return 0;
 5a0:	28 2f       	mov	r18, r24
 5a2:	23 71       	andi	r18, 0x13	; 19
 5a4:	81 e0       	ldi	r24, 0x01	; 1

000005a6 <.Loc.222>:
 5a6:	90 e0       	ldi	r25, 0x00	; 0
 5a8:	21 11       	cpse	r18, r1
 5aa:	80 e0       	ldi	r24, 0x00	; 0

000005ac <.L20>:

    return 1;
}
 5ac:	df 91       	pop	r29
 5ae:	cf 91       	pop	r28

000005b0 <.Loc.224>:
 5b0:	08 95       	ret

000005b2 <RFID_opstarten>:

void RFID_opstarten(void) {
    initialisatie_RFID();
 5b2:	0e 94 9a 00 	call	0x134	; 0x134 <initialisatie_RFID>

000005b6 <.LVL76>:
    rc522_init();
 5b6:	0e 94 ec 01 	call	0x3d8	; 0x3d8 <rc522_init>

000005ba <.LVL77>:

    int tag = 0;
 5ba:	c0 e0       	ldi	r28, 0x00	; 0
 5bc:	d0 e0       	ldi	r29, 0x00	; 0

000005be <.Loc.230>:

    while (1) {
        if (tag_detectedR()) {
            LED_BLAUW_PORT |= (1 << LED_BLAUW);
            _delay_ms(100);
            tag = 1;
 5be:	01 e0       	ldi	r16, 0x01	; 1
 5c0:	10 e0       	ldi	r17, 0x00	; 0
 5c2:	06 c0       	rjmp	.+12     	; 0x5d0 <.L28>

000005c4 <.L31>:
        }
        else {
            if (tag == 1) {
                tag = 0;
 5c4:	e9 01       	movw	r28, r18

000005c6 <.Loc.232>:
 5c6:	04 c0       	rjmp	.+8      	; 0x5d0 <.L28>

000005c8 <.L29>:
            if (tag == 1) {
 5c8:	c1 30       	cpi	r28, 0x01	; 1
 5ca:	d1 05       	cpc	r29, r1
 5cc:	d9 f3       	breq	.-10     	; 0x5c4 <.L31>

000005ce <.Loc.235>:
            }
            else {
                LED_BLAUW_PORT &= ~(1 << LED_BLAUW);
 5ce:	42 98       	cbi	0x08, 2	; 8

000005d0 <.L28>:
        if (tag_detectedR()) {
 5d0:	0e 94 61 02 	call	0x4c2	; 0x4c2 <tag_detectedR>

000005d4 <.LVL82>:
 5d4:	28 2f       	mov	r18, r24
 5d6:	39 2f       	mov	r19, r25

000005d8 <.Loc.240>:
 5d8:	21 15       	cp	r18, r1
 5da:	31 05       	cpc	r19, r1
 5dc:	a9 f3       	breq	.-22     	; 0x5c8 <.L29>

000005de <.Loc.241>:
            LED_BLAUW_PORT |= (1 << LED_BLAUW);
 5de:	42 9a       	sbi	0x08, 2	; 8

000005e0 <.LBB42>:
	__builtin_avr_delay_cycles(__ticks_dc);
 5e0:	2f ef       	ldi	r18, 0xFF	; 255
 5e2:	81 ee       	ldi	r24, 0xE1	; 225
 5e4:	94 e0       	ldi	r25, 0x04	; 4

000005e6 <.L1^B9>:
 5e6:	21 50       	subi	r18, 0x01	; 1
 5e8:	80 40       	sbci	r24, 0x00	; 0
 5ea:	90 40       	sbci	r25, 0x00	; 0
 5ec:	e1 f7       	brne	.-8      	; 0x5e6 <.L1^B9>
 5ee:	00 c0       	rjmp	.+0      	; 0x5f0 <L0^A>

000005f0 <L0^A>:
	...

000005f2 <.LBE42>:
            tag = 1;
 5f2:	c0 2f       	mov	r28, r16
 5f4:	d1 2f       	mov	r29, r17
 5f6:	ec cf       	rjmp	.-40     	; 0x5d0 <.L28>

000005f8 <RFID_scannen>:
}

// hoe zorg je dat je hier na 2 sec weer uit bent? Is 1 keer checken genoeg?
void RFID_scannen(void){
    int gedetecteerd = 0;
    while(gedetecteerd == 0)
 5f8:	0a c0       	rjmp	.+20     	; 0x60e <.L35>

000005fa <.L36>:
        if (tag_detectedR()) {
            LED_BLAUW_PORT |= (1 << LED_BLAUW);
 5fa:	42 9a       	sbi	0x08, 2	; 8

000005fc <.LBB44>:
 5fc:	2f ef       	ldi	r18, 0xFF	; 255
 5fe:	84 e3       	ldi	r24, 0x34	; 52
 600:	9c e0       	ldi	r25, 0x0C	; 12

00000602 <.L1^B10>:
 602:	21 50       	subi	r18, 0x01	; 1
 604:	80 40       	sbci	r24, 0x00	; 0
 606:	90 40       	sbci	r25, 0x00	; 0
 608:	e1 f7       	brne	.-8      	; 0x602 <.L1^B10>
 60a:	00 c0       	rjmp	.+0      	; 0x60c <L0^A>

0000060c <L0^A>:
	...

0000060e <.L35>:
        if (tag_detectedR()) {
 60e:	0e 94 61 02 	call	0x4c2	; 0x4c2 <tag_detectedR>

00000612 <.LVL88>:
 612:	89 2b       	or	r24, r25
 614:	e1 f3       	breq	.-8      	; 0x60e <.L35>
 616:	f1 cf       	rjmp	.-30     	; 0x5fa <.L36>

00000618 <__vector_1>:
#include "RFID_sensor.h"
#include "Display.h"
#include "Sequence.h"

ISR(INT0_vect) { //AGV heeft commando geacknowledged
    NEXT_MOD_PORT &= ~(1 << NEXT_MOD);
 618:	a1 98       	cbi	0x14, 1	; 20

0000061a <.Loc.3>:
}
 61a:	18 95       	reti

0000061c <rijden>:



void rijden(void) {
    NEXT_MOD_PORT |= (1 << NEXT_MOD); // Volgende naar agv signaleren
 61c:	a1 9a       	sbi	0x14, 1	; 20

0000061e <.Loc.7>:
}
 61e:	08 95       	ret

00000620 <stoppen>:

void stoppen(void) {
    NEXT_MOD_PORT |= (1 << NEXT_MOD);
 620:	a1 9a       	sbi	0x14, 1	; 20

00000622 <.Loc.11>:
}
 622:	08 95       	ret

00000624 <sequence>:

void sequence(void) {
    RFID_opstarten();
 624:	0e 94 d9 02 	call	0x5b2	; 0x5b2 <RFID_opstarten>

00000628 <.LVL0>:
    rijden();
 628:	0e 94 0e 03 	call	0x61c	; 0x61c <rijden>

0000062c <.LVL1>:
    while ((NEXT_AGV_PIN & NEXT_AGV) == 0) { //detectiemodus
        if ( ((IR_L_PIN & IR_L) == 0) || ((IR_R_PIN & IR_R) == 0)) { //doosje gedetecteerd
 62c:	c9 e0       	ldi	r28, 0x09	; 9
 62e:	d1 e0       	ldi	r29, 0x01	; 1

00000630 <.Loc.17>:
    while ((NEXT_AGV_PIN & NEXT_AGV) == 0) { //detectiemodus
 630:	02 c0       	rjmp	.+4      	; 0x636 <.L5>

00000632 <.L7>:
            stoppen();
 632:	0e 94 10 03 	call	0x620	; 0x620 <stoppen>

00000636 <.L5>:
    while ((NEXT_AGV_PIN & NEXT_AGV) == 0) { //detectiemodus
 636:	86 b1       	in	r24, 0x06	; 6

00000638 <.Loc.21>:
        if ( ((IR_L_PIN & IR_L) == 0) || ((IR_R_PIN & IR_R) == 0)) { //doosje gedetecteerd
 638:	88 81       	ld	r24, Y

0000063a <.Loc.23>:
 63a:	82 ff       	sbrs	r24, 2
 63c:	fa cf       	rjmp	.-12     	; 0x632 <.L7>

0000063e <.Loc.24>:
 63e:	88 81       	ld	r24, Y

00000640 <.Loc.25>:
 640:	85 70       	andi	r24, 0x05	; 5
 642:	81 11       	cpse	r24, r1
 644:	f8 cf       	rjmp	.-16     	; 0x636 <.L5>
 646:	f5 cf       	rjmp	.-22     	; 0x632 <.L7>

00000648 <_exit>:
 648:	f8 94       	cli

0000064a <__stop_program>:
 64a:	ff cf       	rjmp	.-2      	; 0x64a <__stop_program>
